###############################################################################
#
# IAR ELF Linker V7.40.2.8542/W32 for ARM                 15/Oct/2015  13:34:24
# Copyright 2007-2015 IAR Systems AB.
#
#    Output file  =  
#        C:\Users\b45112\Desktop\MICO-Freescale(20150826_milestone)\MICO-Freescale-k22\src\Build\FRDM_K64F_SPP\Exe\COM.MXCHIP.SPP.out
#    Map file     =  
#        C:\Users\b45112\Desktop\MICO-Freescale(20150826_milestone)\MICO-Freescale-k22\src\Build\FRDM_K64F_SPP\List\COM.MXCHIP.SPP.map
#    Command line =  
#        "C:\Users\b45112\Desktop\MICO-Freescale(20150826_milestone)\MICO-Freescale-k22\src\Build\FRDM_K64F_SPP\Obj\AESUtils.o"
#        "C:\Users\b45112\Desktop\MICO-Freescale(20150826_milestone)\MICO-Freescale-k22\src\Build\FRDM_K64F_SPP\Obj\arraylist.o"
#        "C:\Users\b45112\Desktop\MICO-Freescale(20150826_milestone)\MICO-Freescale-k22\src\Build\FRDM_K64F_SPP\Obj\crt0_IAR.o"
#        "C:\Users\b45112\Desktop\MICO-Freescale(20150826_milestone)\MICO-Freescale-k22\src\Build\FRDM_K64F_SPP\Obj\curve25519-donna.o"
#        "C:\Users\b45112\Desktop\MICO-Freescale(20150826_milestone)\MICO-Freescale-k22\src\Build\FRDM_K64F_SPP\Obj\debug.o"
#        "C:\Users\b45112\Desktop\MICO-Freescale(20150826_milestone)\MICO-Freescale-k22\src\Build\FRDM_K64F_SPP\Obj\define.o"
#        "C:\Users\b45112\Desktop\MICO-Freescale(20150826_milestone)\MICO-Freescale-k22\src\Build\FRDM_K64F_SPP\Obj\EasyLink.o"
#        "C:\Users\b45112\Desktop\MICO-Freescale(20150826_milestone)\MICO-Freescale-k22\src\Build\FRDM_K64F_SPP\Obj\EasyLinkSoftAP.o"
#        "C:\Users\b45112\Desktop\MICO-Freescale(20150826_milestone)\MICO-Freescale-k22\src\Build\FRDM_K64F_SPP\Obj\edma.o"
#        "C:\Users\b45112\Desktop\MICO-Freescale(20150826_milestone)\MICO-Freescale-k22\src\Build\FRDM_K64F_SPP\Obj\enet.o"
#        "C:\Users\b45112\Desktop\MICO-Freescale(20150826_milestone)\MICO-Freescale-k22\src\Build\FRDM_K64F_SPP\Obj\eth_phy.o"
#        "C:\Users\b45112\Desktop\MICO-Freescale(20150826_milestone)\MICO-Freescale-k22\src\Build\FRDM_K64F_SPP\Obj\ethernetif.o"
#        "C:\Users\b45112\Desktop\MICO-Freescale(20150826_milestone)\MICO-Freescale-k22\src\Build\FRDM_K64F_SPP\Obj\flash_kinetis.o"
#        "C:\Users\b45112\Desktop\MICO-Freescale(20150826_milestone)\MICO-Freescale-k22\src\Build\FRDM_K64F_SPP\Obj\flash_kinetisRamFunc.o"
#        "C:\Users\b45112\Desktop\MICO-Freescale(20150826_milestone)\MICO-Freescale-k22\src\Build\FRDM_K64F_SPP\Obj\fsl_debug_console.o"
#        "C:\Users\b45112\Desktop\MICO-Freescale(20150826_milestone)\MICO-Freescale-k22\src\Build\FRDM_K64F_SPP\Obj\fsl_dspi_irq.o"
#        "C:\Users\b45112\Desktop\MICO-Freescale(20150826_milestone)\MICO-Freescale-k22\src\Build\FRDM_K64F_SPP\Obj\fsl_edma_common.o"
#        "C:\Users\b45112\Desktop\MICO-Freescale(20150826_milestone)\MICO-Freescale-k22\src\Build\FRDM_K64F_SPP\Obj\fsl_edma_driver.o"
#        "C:\Users\b45112\Desktop\MICO-Freescale(20150826_milestone)\MICO-Freescale-k22\src\Build\FRDM_K64F_SPP\Obj\fsl_edma_irq.o"
#        "C:\Users\b45112\Desktop\MICO-Freescale(20150826_milestone)\MICO-Freescale-k22\src\Build\FRDM_K64F_SPP\Obj\fsl_rtc_irq.o"
#        "C:\Users\b45112\Desktop\MICO-Freescale(20150826_milestone)\MICO-Freescale-k22\src\Build\FRDM_K64F_SPP\Obj\fsl_uart_common.o"
#        "C:\Users\b45112\Desktop\MICO-Freescale(20150826_milestone)\MICO-Freescale-k22\src\Build\FRDM_K64F_SPP\Obj\fsl_uart_driver.o"
#        "C:\Users\b45112\Desktop\MICO-Freescale(20150826_milestone)\MICO-Freescale-k22\src\Build\FRDM_K64F_SPP\Obj\fsl_uart_edma_driver.o"
#        "C:\Users\b45112\Desktop\MICO-Freescale(20150826_milestone)\MICO-Freescale-k22\src\Build\FRDM_K64F_SPP\Obj\fsl_uart_hal.o"
#        "C:\Users\b45112\Desktop\MICO-Freescale(20150826_milestone)\MICO-Freescale-k22\src\Build\FRDM_K64F_SPP\Obj\fsl_uart_irq.o"
#        "C:\Users\b45112\Desktop\MICO-Freescale(20150826_milestone)\MICO-Freescale-k22\src\Build\FRDM_K64F_SPP\Obj\gpio_pins.o"
#        "C:\Users\b45112\Desktop\MICO-Freescale(20150826_milestone)\MICO-Freescale-k22\src\Build\FRDM_K64F_SPP\Obj\hardware_init.o"
#        "C:\Users\b45112\Desktop\MICO-Freescale(20150826_milestone)\MICO-Freescale-k22\src\Build\FRDM_K64F_SPP\Obj\hkdf.o"
#        "C:\Users\b45112\Desktop\MICO-Freescale(20150826_milestone)\MICO-Freescale-k22\src\Build\FRDM_K64F_SPP\Obj\hmac.o"
#        "C:\Users\b45112\Desktop\MICO-Freescale(20150826_milestone)\MICO-Freescale-k22\src\Build\FRDM_K64F_SPP\Obj\HomeProtocolParse.o"
#        "C:\Users\b45112\Desktop\MICO-Freescale(20150826_milestone)\MICO-Freescale-k22\src\Build\FRDM_K64F_SPP\Obj\HTTPUtils.o"
#        "C:\Users\b45112\Desktop\MICO-Freescale(20150826_milestone)\MICO-Freescale-k22\src\Build\FRDM_K64F_SPP\Obj\json_object.o"
#        "C:\Users\b45112\Desktop\MICO-Freescale(20150826_milestone)\MICO-Freescale-k22\src\Build\FRDM_K64F_SPP\Obj\json_tokener.o"
#        "C:\Users\b45112\Desktop\MICO-Freescale(20150826_milestone)\MICO-Freescale-k22\src\Build\FRDM_K64F_SPP\Obj\json_util.o"
#        "C:\Users\b45112\Desktop\MICO-Freescale(20150826_milestone)\MICO-Freescale-k22\src\Build\FRDM_K64F_SPP\Obj\k64_gpio.o"
#        "C:\Users\b45112\Desktop\MICO-Freescale(20150826_milestone)\MICO-Freescale-k22\src\Build\FRDM_K64F_SPP\Obj\k64_spi.o"
#        "C:\Users\b45112\Desktop\MICO-Freescale(20150826_milestone)\MICO-Freescale-k22\src\Platform\vendor\Freescale\MK64FxxL12\ksdk_freertos_lib.a"
#        "C:\Users\b45112\Desktop\MICO-Freescale(20150826_milestone)\MICO-Freescale-k22\src\Build\FRDM_K64F_SPP\Obj\ksdk_platform.o"
#        "C:\Users\b45112\Desktop\MICO-Freescale(20150826_milestone)\MICO-Freescale-k22\src\Build\FRDM_K64F_SPP\Obj\linkhash.o"
#        "C:\Users\b45112\Desktop\MICO-Freescale(20150826_milestone)\MICO-Freescale-k22\src\Build\FRDM_K64F_SPP\Obj\LocalTcpServer.o"
#        "C:\Users\b45112\Desktop\MICO-Freescale(20150826_milestone)\MICO-Freescale-k22\src\Build\FRDM_K64F_SPP\Obj\MDNSUtils.o"
#        "C:\Users\b45112\Desktop\MICO-Freescale(20150826_milestone)\MICO-Freescale-k22\src\Build\FRDM_K64F_SPP\Obj\mem_tools.o"
#        "C:\Users\b45112\Desktop\MICO-Freescale(20150826_milestone)\MICO-Freescale-k22\src\Build\FRDM_K64F_SPP\Obj\MICOAppEntrance.o"
#        "C:\Users\b45112\Desktop\MICO-Freescale(20150826_milestone)\MICO-Freescale-k22\src\Build\FRDM_K64F_SPP\Obj\MICOBonjour.o"
#        "C:\Users\b45112\Desktop\MICO-Freescale(20150826_milestone)\MICO-Freescale-k22\src\Build\FRDM_K64F_SPP\Obj\MICOConfig.o"
#        "C:\Users\b45112\Desktop\MICO-Freescale(20150826_milestone)\MICO-Freescale-k22\src\Build\FRDM_K64F_SPP\Obj\MICOConfigDelegate.o"
#        "C:\Users\b45112\Desktop\MICO-Freescale(20150826_milestone)\MICO-Freescale-k22\src\Build\FRDM_K64F_SPP\Obj\MICOConfigMenu.o"
#        "C:\Users\b45112\Desktop\MICO-Freescale(20150826_milestone)\MICO-Freescale-k22\src\Build\FRDM_K64F_SPP\Obj\MICOConfigServer.o"
#        "C:\Users\b45112\Desktop\MICO-Freescale(20150826_milestone)\MICO-Freescale-k22\src\Build\FRDM_K64F_SPP\Obj\MicoDriverAdc.o"
#        "C:\Users\b45112\Desktop\MICO-Freescale(20150826_milestone)\MICO-Freescale-k22\src\Build\FRDM_K64F_SPP\Obj\MicoDriverFlash.o"
#        "C:\Users\b45112\Desktop\MICO-Freescale(20150826_milestone)\MICO-Freescale-k22\src\Build\FRDM_K64F_SPP\Obj\MicoDriverGpio.o"
#        "C:\Users\b45112\Desktop\MICO-Freescale(20150826_milestone)\MICO-Freescale-k22\src\Build\FRDM_K64F_SPP\Obj\MicoDriverI2c.o"
#        "C:\Users\b45112\Desktop\MICO-Freescale(20150826_milestone)\MICO-Freescale-k22\src\Platform\Common\Drivers\MicoDriverMFiAuth.a"
#        "C:\Users\b45112\Desktop\MICO-Freescale(20150826_milestone)\MICO-Freescale-k22\src\Build\FRDM_K64F_SPP\Obj\MicoDriverPwm.o"
#        "C:\Users\b45112\Desktop\MICO-Freescale(20150826_milestone)\MICO-Freescale-k22\src\Build\FRDM_K64F_SPP\Obj\MicoDriverRng.o"
#        "C:\Users\b45112\Desktop\MICO-Freescale(20150826_milestone)\MICO-Freescale-k22\src\Build\FRDM_K64F_SPP\Obj\MicoDriverRtc.o"
#        "C:\Users\b45112\Desktop\MICO-Freescale(20150826_milestone)\MICO-Freescale-k22\src\Build\FRDM_K64F_SPP\Obj\MicoDriverSpi.o"
#        "C:\Users\b45112\Desktop\MICO-Freescale(20150826_milestone)\MICO-Freescale-k22\src\Build\FRDM_K64F_SPP\Obj\MicoDriverUart.o"
#        "C:\Users\b45112\Desktop\MICO-Freescale(20150826_milestone)\MICO-Freescale-k22\src\Build\FRDM_K64F_SPP\Obj\MicoDriverWdg.o"
#        "C:\Users\b45112\Desktop\MICO-Freescale(20150826_milestone)\MICO-Freescale-k22\src\Build\FRDM_K64F_SPP\Obj\MICOEntrance.o"
#        "C:\Users\b45112\Desktop\MICO-Freescale(20150826_milestone)\MICO-Freescale-k22\src\Build\FRDM_K64F_SPP\Obj\MICONotificationCenter.o"
#        "C:\Users\b45112\Desktop\MICO-Freescale(20150826_milestone)\MICO-Freescale-k22\src\Build\FRDM_K64F_SPP\Obj\MICONTPClient.o"
#        "C:\Users\b45112\Desktop\MICO-Freescale(20150826_milestone)\MICO-Freescale-k22\src\Build\FRDM_K64F_SPP\Obj\MICOParaStorage.o"
#        "C:\Users\b45112\Desktop\MICO-Freescale(20150826_milestone)\MICO-Freescale-k22\src\Build\FRDM_K64F_SPP\Obj\MICOSystemMonitor.o"
#        "C:\Users\b45112\Desktop\MICO-Freescale(20150826_milestone)\MICO-Freescale-k22\src\Build\FRDM_K64F_SPP\Obj\mii.o"
#        "C:\Users\b45112\Desktop\MICO-Freescale(20150826_milestone)\MICO-Freescale-k22\src\Library\mxchipWNet_cm4f_spi.a"
#        "C:\Users\b45112\Desktop\MICO-Freescale(20150826_milestone)\MICO-Freescale-k22\src\Build\FRDM_K64F_SPP\Obj\nbuf.o"
#        "C:\Users\b45112\Desktop\MICO-Freescale(20150826_milestone)\MICO-Freescale-k22\src\Build\FRDM_K64F_SPP\Obj\pin_mux.o"
#        "C:\Users\b45112\Desktop\MICO-Freescale(20150826_milestone)\MICO-Freescale-k22\src\Build\FRDM_K64F_SPP\Obj\platform.o"
#        "C:\Users\b45112\Desktop\MICO-Freescale(20150826_milestone)\MICO-Freescale-k22\src\Build\FRDM_K64F_SPP\Obj\printbuf.o"
#        "C:\Users\b45112\Desktop\MICO-Freescale(20150826_milestone)\MICO-Freescale-k22\src\Build\FRDM_K64F_SPP\Obj\read_wifi_firmware.o"
#        "C:\Users\b45112\Desktop\MICO-Freescale(20150826_milestone)\MICO-Freescale-k22\src\Build\FRDM_K64F_SPP\Obj\RemoteTcpClient.o"
#        "C:\Users\b45112\Desktop\MICO-Freescale(20150826_milestone)\MICO-Freescale-k22\src\Build\FRDM_K64F_SPP\Obj\RingBufferUtils.o"
#        "C:\Users\b45112\Desktop\MICO-Freescale(20150826_milestone)\MICO-Freescale-k22\src\Build\FRDM_K64F_SPP\Obj\SecurityUtils.o"
#        "C:\Users\b45112\Desktop\MICO-Freescale(20150826_milestone)\MICO-Freescale-k22\src\Build\FRDM_K64F_SPP\Obj\sha1.o"
#        "C:\Users\b45112\Desktop\MICO-Freescale(20150826_milestone)\MICO-Freescale-k22\src\Build\FRDM_K64F_SPP\Obj\sha224-256.o"
#        "C:\Users\b45112\Desktop\MICO-Freescale(20150826_milestone)\MICO-Freescale-k22\src\Build\FRDM_K64F_SPP\Obj\sha384-512.o"
#        "C:\Users\b45112\Desktop\MICO-Freescale(20150826_milestone)\MICO-Freescale-k22\src\Build\FRDM_K64F_SPP\Obj\SHAUtils.o"
#        "C:\Users\b45112\Desktop\MICO-Freescale(20150826_milestone)\MICO-Freescale-k22\src\Build\FRDM_K64F_SPP\Obj\SocketUtils.o"
#        "C:\Users\b45112\Desktop\MICO-Freescale(20150826_milestone)\MICO-Freescale-k22\src\Build\FRDM_K64F_SPP\Obj\SparkLight.o"
#        "C:\Users\b45112\Desktop\MICO-Freescale(20150826_milestone)\MICO-Freescale-k22\src\Build\FRDM_K64F_SPP\Obj\SppProtocol.o"
#        "C:\Users\b45112\Desktop\MICO-Freescale(20150826_milestone)\MICO-Freescale-k22\src\Build\FRDM_K64F_SPP\Obj\startup.o"
#        "C:\Users\b45112\Desktop\MICO-Freescale(20150826_milestone)\MICO-Freescale-k22\src\Build\FRDM_K64F_SPP\Obj\startup_MK64F12.o"
#        "C:\Users\b45112\Desktop\MICO-Freescale(20150826_milestone)\MICO-Freescale-k22\src\Build\FRDM_K64F_SPP\Obj\StringUtils.o"
#        "C:\Users\b45112\Desktop\MICO-Freescale(20150826_milestone)\MICO-Freescale-k22\src\Build\FRDM_K64F_SPP\Obj\system_MK64F12.o"
#        "C:\Users\b45112\Desktop\MICO-Freescale(20150826_milestone)\MICO-Freescale-k22\src\Build\FRDM_K64F_SPP\Obj\TimeUtils.o"
#        "C:\Users\b45112\Desktop\MICO-Freescale(20150826_milestone)\MICO-Freescale-k22\src\Build\FRDM_K64F_SPP\Obj\TLVUtils.o"
#        "C:\Users\b45112\Desktop\MICO-Freescale(20150826_milestone)\MICO-Freescale-k22\src\Build\FRDM_K64F_SPP\Obj\UartRecv.o"
#        "C:\Users\b45112\Desktop\MICO-Freescale(20150826_milestone)\MICO-Freescale-k22\src\Build\FRDM_K64F_SPP\Obj\URLUtils.o"
#        "C:\Users\b45112\Desktop\MICO-Freescale(20150826_milestone)\MICO-Freescale-k22\src\Build\FRDM_K64F_SPP\Obj\usha.o"
#        "C:\Users\b45112\Desktop\MICO-Freescale(20150826_milestone)\MICO-Freescale-k22\src\Build\FRDM_K64F_SPP\Obj\wlan_platform.o"
#        "C:\Users\b45112\Desktop\MICO-Freescale(20150826_milestone)\MICO-Freescale-k22\src\Build\FRDM_K64F_SPP\Obj\WPS.o"
#        "C:\Users\b45112\Desktop\MICO-Freescale(20150826_milestone)\MICO-Freescale-k22\src\Build\FRDM_K64F_SPP\Obj\wwd_bus.o"
#        --redirect _Printf=_PrintfFull --redirect _Scanf=_ScanfFull -o
#        "C:\Users\b45112\Desktop\MICO-Freescale(20150826_milestone)\MICO-Freescale-k22\src\Build\FRDM_K64F_SPP\Exe\COM.MXCHIP.SPP.out"
#        --map
#        "C:\Users\b45112\Desktop\MICO-Freescale(20150826_milestone)\MICO-Freescale-k22\src\Build\FRDM_K64F_SPP\List\COM.MXCHIP.SPP.map"
#        --config
#        "C:\Users\b45112\Desktop\MICO-Freescale(20150826_milestone)\MICO-Freescale-k22\src\Projects\COM.MXCHIP.SPP\EWARM\..\..\..\Platform\BoardConfig\FRDM_K64\K64FN1Mxxx12_flash.icf"
#        --semihosting --entry __iar_program_start --vfe --threaded_lib
#
###############################################################################

*******************************************************************************
*** RUNTIME MODEL ATTRIBUTES
***

CppFlavor                     = *
__Heap_Handler                = DLMalloc
__SystemLibrary               = DLib
__dlib_dynamic_initialization = normal


*******************************************************************************
*** PLACEMENT SUMMARY
***

"A1":  place at 0x00000000 { ro section .intvec };
"P1":  place in [from 0x0000a400 to 0x0000a40f] { section FlashConfig };
"P2":  place in [from 0x00000000 to 0x000003ff] |
                [from 0x0000a410 to 0x000fffff] { ro };
"P3":  place in [from 0x1fff0400 to 0x1fffffff] |
                [from 0x20000000 to 0x2002feff] { rw, block CSTACK, block HEAP };
"P4":  place in [from 0x1fff0400 to 0x1fffffff] |
                [from 0x20000000 to 0x2002feff] { zi };
"P6":  place in [from 0x2002ff00 to 0x2002ffff] { section codeRam };

  Section              Kind        Address     Size  Object
  -------              ----        -------     ----  ------
"A1":                                         0x400
  .intvec                       0x00000000    0x400  <Block>
    .intvec            ro code  0x00000000    0x400  startup_MK64F12.o [1]
                              - 0x00000400    0x400

"P1":                                          0x10
  FlashConfig          ro code  0x0000a400     0x10  startup_MK64F12.o [1]
                              - 0x0000a410     0x10

"P2":                                       0x65109
  .text                ro code  0x0000a410  0x31a2c  read_wifi_firmware.o [1]
  .text                ro code  0x0003be3c     0x76  ABImemcpy_unaligned.o [7]
  .text                ro code  0x0003beb2     0x22  zero_init3.o [7]
  .text                ro code  0x0003bed4   0x2874  smart_config.o [6]
  .text                ro code  0x0003e748     0x66  ABImemset.o [7]
  .text                ro code  0x0003e7ae     0x1e  xsscin.o [3]
  .text                ro code  0x0003e7cc     0x62  memcmp_unaligned.o [7]
  .text                ro code  0x0003e82e     0x1a  xsnprout.o [3]
  .text                ro code  0x0003e848    0x7a0  mxchipWNET.o [6]
  .text                ro code  0x0003efe8    0x434  MICONotificationCenter.o [1]
  .text                ro code  0x0003f41c     0x44  snprintf.o [3]
  .text                ro code  0x0003f460   0x146c  wwd_wifi.o [6]
  .text                ro code  0x000408cc   0x19dc  wifimgr.o [6]
  .text                ro code  0x000422a8     0x6c  strncpy_unaligned.o [7]
  .text                ro code  0x00042314     0x36  strlen.o [7]
  .text                ro code  0x0004234a      0xa  xsprout.o [3]
  .text                ro code  0x00042354    0x42c  wiced_network.o [6]
  .text                ro code  0x00042780    0x5c2  wiced_rtos.o [6]
  .rodata              const    0x00042d42      0x2  wwd_bus_protocol.o [6]
  .text                ro code  0x00042d44    0xa58  tasks.o [6]
  .text                ro code  0x0004379c     0xc0  wifi.o [6]
  .text                ro code  0x0004385c   0x2590  dlmalloc.o [6]
  .text                ro code  0x00045dec     0xe0  arc4.o [6]
  .text                ro code  0x00045ecc     0xb0  wwd_buffer.o [6]
  .text                ro code  0x00045f7c     0x34  sprintf.o [3]
  .text                ro code  0x00045fb0    0x3a0  tcpip.o [6]
  .text                ro code  0x00046350    0x684  dns.o [6]
  .text                ro code  0x000469d4    0x130  wwd_rtos.o [6]
  .text                ro code  0x00046b04     0x20  srand.o [3]
  .text                ro code  0x00046b24    0xe04  tcp.o [6]
  .text                ro code  0x00047928    0x248  ip_addr.o [6]
  .text                ro code  0x00047b70     0x36  def.o [6]
  .text                ro code  0x00047ba6      0x2  startup_MK64F12.o [1]
  .text                ro code  0x00047ba8   0x147c  sockets.o [6]
  .text                ro code  0x00049024     0x42  strcmp_unaligned.o [7]
  .text                ro code  0x00049066      0x2  startup_MK64F12.o [1]
  .text                ro code  0x00049068     0x44  strcpy_unaligned.o [7]
  .text                ro code  0x000490ac    0x244  wwd_management.o [6]
  .text                ro code  0x000492f0     0x24  printf.o [3]
  .text                ro code  0x00049314   0x1156  xprintffull.o [3]
  .text                ro code  0x0004a46a      0x2  startup_MK64F12.o [1]
  .text                ro code  0x0004a46c    0xc00  SDPCM.o [6]
  .text                ro code  0x0004b06c    0x4ec  pbuf.o [6]
  .text                ro code  0x0004b558    0x4d0  ip.o [6]
  .text                ro code  0x0004ba28     0x30  aes_wrap.o [6]
  .text                ro code  0x0004ba58    0x1ec  dns_redirect.o [6]
  .text                ro code  0x0004bc44    0x492  wwd_ap.o [6]
  .text                ro code  0x0004c0d6      0x2  startup_MK64F12.o [1]
  .text                ro code  0x0004c0d8     0x64  dnsclient.o [6]
  .text                ro code  0x0004c13c     0x2a  strncmp.o [3]
  .text                ro code  0x0004c166      0x2  startup_MK64F12.o [1]
  .text                ro code  0x0004c168      0x8  mftest.o [6]
  .text                ro code  0x0004c170    0x8d8  etharp.o [6]
  .text                ro code  0x0004ca48    0x508  queue.o [6]
  .text                ro code  0x0004cf50    0x2e0  lwiptcpip.o [6]
  .text                ro code  0x0004d230    0x358  netif.o [6]
  .text                ro code  0x0004d588    0xf20  dhcp.o [6]
  .text                ro code  0x0004e4a8     0x28  sys.o [6]
  .text                ro code  0x0004e4d0    0x568  igmp.o [6]
  .text                ro code  0x0004ea38    0x650  dhcp_server.o [6]
  .text                ro code  0x0004f088     0x48  netifapi.o [6]
  .text                ro code  0x0004f0d0     0x5c  ksdk_platform.o [1]
  .text                ro code  0x0004f12c    0x324  platform.o [1]
  .text                ro code  0x0004f450   0x1258  MICOEntrance.o [1]
  .text                ro code  0x000506a8     0x44  wlan_platform.o [1]
  .text                ro code  0x000506ec     0xec  port.o [6]
  .text                ro code  0x000507d8    0x370  ostimers.o [6]
  .text                ro code  0x00050b48     0x9a  list.o [6]
  .text                ro code  0x00050be2      0x2  startup_MK64F12.o [1]
  CODE                 ro code  0x00050be4     0xa8  portasm.o [6]
  .text                ro code  0x00050c8c     0x38  heap_3.o [6]
  .text                ro code  0x00050cc4      0x6  abort.o [3]
  .rodata              const    0x00050cca      0x1  smart_config.o [6]
  .rodata              const    0x00050ccb      0x1  smart_config.o [6]
  .text                ro code  0x00050ccc      0x6  ABImemclr4.o [7]
  .text                ro code  0x00050cd2     0x20  xsyslock.o [3]
  .rodata              const    0x00050cf2      0x1  smart_config.o [6]
  .rodata              const    0x00050cf3      0x1  smart_config.o [6]
  .text                ro code  0x00050cf4     0x2c  xgetmemchunk.o [3]
  .text                ro code  0x00050d20     0xda  netbuf.o [6]
  .text                ro code  0x00050dfc    0x588  api_lib.o [6]
  .text                ro code  0x00051384    0x66c  udp.o [6]
  .text                ro code  0x000519f0      0x2  xtls.o [3]
  .text                ro code  0x000519f4    0xcc2  tcp_out.o [6]
  .text                ro code  0x000526b8    0x300  lwiptimers.o [6]
  .text                ro code  0x000529b8     0xcc  memp.o [6]
  .text                ro code  0x00052a84     0xe0  rand.o [3]
  .text                ro code  0x00052b64    0x2a0  sys_arch.o [6]
  .text                ro code  0x00052e04     0xe4  wwd_bus.o [1]
  .text                ro code  0x00052ee8    0x6f4  wwd_bus_protocol.o [6]
  .text                ro code  0x000535dc    0x248  wwd_thread.o [6]
  .text                ro code  0x00053824     0x20  xmbtowc.o [3]
  .text                ro code  0x00053844     0x16  strchr.o [7]
  .text                ro code  0x0005385c     0x58  memchr.o [7]
  .text                ro code  0x000538b4      0xa  xmbcurmax.o [3]
  .text                ro code  0x000538be     0x1a  xwctomb.o [3]
  .text                ro code  0x000538d8     0xee  I64DivMod.o [7]
  .text                ro code  0x000539c6     0x42  xdnorm.o [5]
  .text                ro code  0x00053a08     0x2e  DblCmpLe.o [5]
  .text                ro code  0x00053a38     0x2e  DblCmpGe.o [5]
  .text                ro code  0x00053a68    0x118  xdscale.o [5]
  .text                ro code  0x00053b80     0x58  DblToI32.o [5]
  .text                ro code  0x00053bd8     0x30  I32ToDbl.o [5]
  .text                ro code  0x00053c08    0x180  DblSub.o [5]
  .text                ro code  0x00053d88    0x1a2  DblMul.o [5]
  .text                ro code  0x00053f2c    0x256  DblDiv.o [5]
  .text                ro code  0x00054184     0x6c  localeconv.o [3]
  .text                ro code  0x000541f0      0xe  div.o [3]
  .text                ro code  0x00054200    0x17c  wwd_network.o [6]
  .text                ro code  0x0005437c     0x78  ABImemmove_unaligned.o [7]
  .text                ro code  0x000543f4    0x170  inet_chksum.o [6]
  .text                ro code  0x00054564    0x1cc  raw.o [6]
  .text                ro code  0x00054730   0x13cc  tcp_in.o [6]
  .text                ro code  0x00055afc    0x184  icmp.o [6]
  .text                ro code  0x00055c80    0xb62  aes.o [6]
  .text                ro code  0x000567e2     0x20  init.o [6]
  .text                ro code  0x00056804     0x8c  wiced_lib.o [6]
  .text                ro code  0x00056890     0xf2  hardware_init.o [1]
  .text                ro code  0x00056984     0x24  ABIassert.o [8]
  .text                ro code  0x000569a8    0x1d0  MicoDriverGpio.o [1]
  .text                ro code  0x00056b78     0x18  strrchr.o [3]
  .text                ro code  0x00056b90    0x3d4  fsl_gpio_driver.o [4]
  .text                ro code  0x00056f64     0xb8  fsl_os_abstraction_free_rtos.o [4]
  .text                ro code  0x0005701c    0x3dc  MICOParaStorage.o [1]
  .text                ro code  0x000573f8    0x1dc  MICOSystemMonitor.o [1]
  .text                ro code  0x000575d4    0x3c8  mico_ethif.o [6]
  .text                ro code  0x0005799c      0xc  MicoDriverRtc.o [1]
  .text                ro code  0x000579a8     0x2c  asctime.o [3]
  .text                ro code  0x000579d4    0x9e4  StringUtils.o [1]
  .text                ro code  0x000583b8   0x1a3c  EasyLink.o [1]
  .text                ro code  0x00059df4    0xf04  MICOConfigServer.o [1]
  .text                ro code  0x0005acf8    0x530  MICONTPClient.o [1]
  .text                ro code  0x0005b228    0x43c  MICOAppEntrance.o [1]
  .text                ro code  0x0005b664     0x14  exit.o [8]
  .text                ro code  0x0005b678     0x3a  ABImemset48.o [7]
  .text                ro code  0x0005b6b4    0x15c  xsyslock_mtx.o [3]
  .text                ro code  0x0005b810    0xeac  api_msg.o [6]
  .text                ro code  0x0005c6bc    0x2fc  k64_gpio.o [1]
  .text                ro code  0x0005c9b8    0x2e8  k64_spi.o [1]
  .text                ro code  0x0005cca0    0x260  wwd_internal.o [6]
  .text                ro code  0x0005cf00    0x300  wwd_firmware.o [6]
  .text                ro code  0x0005d200     0x54  setlocale.o [3]
  .text                ro code  0x0005d254     0x60  xencoding_sb.o [3]
  .text                ro code  0x0005d2b4      0x2  I64DivZer.o [7]
  .text                ro code  0x0005d2b8     0xe8  DblAdd.o [5]
  .text                ro code  0x0005d3a0     0x4c  wps_host.o [6]
  .text                ro code  0x0005d3ec     0x44  logging.o [6]
  .text                ro code  0x0005d430    0x100  fsl_sim_hal_K64F12.o [4]
  .text                ro code  0x0005d530    0x528  pin_mux.o [1]
  .text                ro code  0x0005da58    0x10a  fsl_debug_console.o [1]
  .text                ro code  0x0005db64     0x70  fsl_gpio_hal.o [4]
  .text                ro code  0x0005dbd4    0x152  MicoDriverFlash.o [1]
  .text                ro code  0x0005dd26      0x6  MicoDriverWdg.o [1]
  .text2               ro code  0x0005dd2c    0x224  ethernetif.o [1]
  .text                ro code  0x0005df50    0x210  ethernetif.o [1]
  .text                ro code  0x0005e160    0x180  xlocale_c.o [3]
  .text                ro code  0x0005e2e0    0x10c  xstrftim.o [3]
  .text                ro code  0x0005e3ec     0x18  toupper.o [3]
  .text                ro code  0x0005e404     0x14  tolower.o [3]
  .text                ro code  0x0005e418     0x28  isxxx.o [3]
  .text                ro code  0x0005e440     0x16  strnlen.o [3]
  .text                ro code  0x0005e458    0xf28  MICOConfigDelegate.o [1]
  .text                ro code  0x0005f380    0x348  SocketUtils.o [1]
  .text                ro code  0x0005f6c8    0x600  json_object.o [1]
  .text                ro code  0x0005fcc8   0x13e0  HTTPUtils.o [1]
  .text                ro code  0x000610a8    0xe00  EasyLinkSoftAP.o [1]
  .text                ro code  0x00061ea8     0xb6  localtim.o [3]
  .text                ro code  0x00061f60    0x174  SppProtocol.o [1]
  .text                ro code  0x000620d4    0x478  MICOBonjour.o [1]
  .text                ro code  0x0006254c      0xe  RingBufferUtils.o [1]
  .text                ro code  0x0006255c    0x328  MicoDriverUart.o [1]
  .text                ro code  0x00062884     0x1c  iar_mutex.o [6]
  .text                ro code  0x000628a0     0xcc  mii.o [1]
  .text                ro code  0x0006296c    0x65c  fsl_edma_driver.o [1]
  .text                ro code  0x00062fc8     0x60  edma.o [1]
  .text                ro code  0x00063028     0x18  read_wifi_firmware.o [6]
  .text                ro code  0x00063040    0x12c  fsl_uart_hal.o [1]
  .text                ro code  0x0006316c    0x4d8  fsl_uart_driver.o [1]
  .text                ro code  0x00063644     0x70  flash_kinetis.o [1]
  .text                ro code  0x000636b4     0x9c  enet.o [1]
  .text                ro code  0x00063750    0x846  xgentime.o [3]
  .text                ro code  0x00063f96      0xc  xlocale_c.o [3]
  .text                ro code  0x00063fa2     0x16  xlocale_c.o [3]
  .text                ro code  0x00063fb8     0x14  xlocale_c.o [3]
  .text                ro code  0x00063fcc     0x2c  strstr.o [3]
  .text                ro code  0x00063ff8    0x708  MICOConfigMenu.o [1]
  .text                ro code  0x00064700    0xeac  json_tokener.o [1]
  .text                ro code  0x000655ac    0x136  printbuf.o [1]
  .text                ro code  0x000656e4    0x34c  linkhash.o [1]
  .text                ro code  0x00065a30     0x18  strdup.o [3]
  .text                ro code  0x00065a48     0x20  DblCmpEq.o [5]
  .text                ro code  0x00065a68     0xe4  json_util.o [1]
  .text                ro code  0x00065b4c     0xd4  arraylist.o [1]
  .text                ro code  0x00065c20    0x16c  URLUtils.o [1]
  .text                ro code  0x00065d8c    0xce0  MDNSUtils.o [1]
  .text                ro code  0x00066a6c      0xa  getzone.o [3]
  .text                ro code  0x00066a76     0x42  xgettime.o [3]
  .text                ro code  0x00066ab8     0x88  xstol.o [3]
  .text                ro code  0x00066b40    0x188  xttotm.o [3]
  .text                ro code  0x00066cc8    0x474  fsl_edma_hal.o [4]
  .text                ro code  0x0006713c     0x28  fsl_dmamux_hal.o [4]
  .text                ro code  0x00067164     0x32  fsl_clock_K64F12.o [4]
  .text                ro code  0x00067196     0x4e  strncasecmp.o [3]
  .text                ro code  0x000671e4     0x24  sscanf.o [3]
  .text                ro code  0x00067208     0x3c  vsnprint.o [3]
  .text                ro code  0x00067244     0x2c  vsprintf.o [3]
  .text                ro code  0x00067270     0x18  vprintf.o [3]
  .text                ro code  0x00067288      0x4  exit.o [3]
  .text                ro code  0x0006728c      0xc  errno.o [3]
  .text                ro code  0x00067298      0x6  ABImemclr.o [7]
  .text                ro code  0x000672a0    0x194  xstoul.o [3]
  .text                ro code  0x00067434    0x134  xisdst.o [3]
  .text                ro code  0x00067568    0x160  fsl_clock_manager.o [4]
  .text                ro code  0x000676c8    0xcd0  xscanffull.o [3]
  .text                ro code  0x00068398     0x12  cexit.o [7]
  .text                ro code  0x000683aa    0x164  xgetdst.o [3]
  .text                ro code  0x00068510    0x2b4  fsl_mcg_hal.o [4]
  .text                ro code  0x000687c4     0xb8  fsl_sim_hal.o [4]
  .text                ro code  0x0006887c     0x40  xwctob.o [3]
  .text                ro code  0x000688bc     0xa4  xstoll.o [3]
  .text                ro code  0x00068960    0x1b0  xstoull.o [3]
  .text                ro code  0x00068b10    0x168  xstold.o [5]
  .text                ro code  0x00068c78     0x90  DblToFlt.o [5]
  .text                ro code  0x00068d08     0x58  xcloseall.o [3]
  .text                ro code  0x00068d60    0x124  xstopfx.o [3]
  .text                ro code  0x00068e84    0x1b8  xstoflt.o [3]
  .text                ro code  0x0006903c     0x44  startup_MK64F12.o [1]
  .text                ro code  0x00069080    0x200  xdtento.o [5]
  .text                ro code  0x00069280    0x218  xstoxflt.o [3]
  .text                ro code  0x00069498     0x7a  fclose.o [3]
  .text                ro code  0x00069512     0x56  xdunscal.o [5]
  .text                ro code  0x00069568     0x7c  xfofind.o [3]
  .text                ro code  0x000695e4     0xb0  fflush.o [3]
  .text                ro code  0x00069694     0x1a  close.o [8]
  .text                ro code  0x000696ae     0x16  remove.o [8]
  .text                ro code  0x000696c4     0xe0  XShHandles.o [3]
  .rodata              const    0x000697a4   0x1400  aes.o [6]
  .rodata              const    0x0006aba4   0x1400  aes.o [6]
  .text                ro code  0x0006bfa4    0x72c  LocalTcpServer.o [1]
  .text                ro code  0x0006c6d0     0xd0  HomeProtocolParse.o [1]
  .text                ro code  0x0006c7a0    0x53c  RemoteTcpClient.o [1]
  .text                ro code  0x0006ccdc    0x47c  fsl_dspi_slave_driver.o [4]
  .text                ro code  0x0006d158    0x33c  fsl_dspi_master_driver.o [4]
  .text                ro code  0x0006d494     0x88  fsl_dspi_hal.o [4]
  .rodata              const    0x0006d51c    0x30c  wwd_firmware.o [6]
  .text                ro code  0x0006d828    0x144  UartRecv.o [1]
  .text                ro code  0x0006d96c    0x134  system_MK64F12.o [1]
  .rodata              const    0x0006daa0    0x100  smart_config.o [6]
  .rodata              const    0x0006dba0    0x100  wwd_wifi.o [6]
  .text                ro code  0x0006dca0     0xd6  xfspos.o [3]
  .text                ro code  0x0006dd76      0xc  xfgpos.o [3]
  .text                ro code  0x0006dd82     0x4c  lseek.o [8]
  .text                ro code  0x0006ddce     0xd0  packbits_init.o [7]
  .text                ro code  0x0006de9e     0xb6  xfwprep.o [3]
  .text                ro code  0x0006df54     0x22  fseek.o [3]
  .rodata              const    0x0006df78     0x78  fsl_gpio_driver.o [4]
  .rodata              const    0x0006dff0     0x68  fsl_gpio_driver.o [4]
  .rodata              const    0x0006e058     0x68  fsl_gpio_driver.o [4]
  .text                ro code  0x0006e0c0     0x66  fsl_edma_irq.o [1]
  .text                ro code  0x0006e128     0x5c  fsl_dspi_shared_function.o [4]
  .rodata              const    0x0006e184     0x58  smart_config.o [6]
  .text                ro code  0x0006e1dc     0x58  startup.o [1]
  .text                ro code  0x0006e234     0x56  fputc.o [3]
  .rodata              const    0x0006e28c     0x50  fsl_dspi_shared_function.o [4]
  .rodata              const    0x0006e2dc     0x48  fsl_os_abstraction_free_rtos.o [4]
  .rodata              const    0x0006e324     0x40  sockets.o [6]
  .text                ro code  0x0006e364     0x40  flash_kinetisRamFunc.o [1]
  .rodata              const    0x0006e3a4     0x3c  fsl_edma_hal.o [4]
  .rodata              const    0x0006e3e0     0x3c  fsl_edma_hal.o [4]
  .rodata              const    0x0006e41c     0x3c  fsl_gpio_hal.o [4]
  .rodata              const    0x0006e458     0x38  platform.o [1]
  .rodata              const    0x0006e490     0x38  wifimgr.o [6]
  .rodata              const    0x0006e4c8     0x38  wifimgr.o [6]
  .rodata              const    0x0006e500     0x38  fsl_sim_hal.o [4]
  .rodata              const    0x0006e538     0x34  smart_config.o [6]
  .rodata              const    0x0006e56c     0x30  gpio_pins.o [1]
  .rodata              const    0x0006e59c     0x30  aes.o [6]
  .rodata              const    0x0006e5cc     0x30  wifimgr.o [6]
  .rodata              const    0x0006e5fc     0x2c  wifimgr.o [6]
  .rodata              const    0x0006e628     0x2c  wifimgr.o [6]
  .rodata              const    0x0006e654     0x2c  fsl_edma_hal.o [4]
  .rodata              const    0x0006e680     0x2c  fsl_gpio_driver.o [4]
  .rodata              const    0x0006e6ac     0x28  aes.o [6]
  .rodata              const    0x0006e6d4     0x28  wifimgr.o [6]
  .rodata              const    0x0006e6fc     0x28  wifimgr.o [6]
  .rodata              const    0x0006e724     0x28  smart_config.o [6]
  .text                ro code  0x0006e74c     0x28  data_init.o [7]
  .rodata              const    0x0006e774     0x24  json_object.o [1]
  .rodata              const    0x0006e798     0x24  fsl_dspi_shared_function.o [4]
  .rodata              const    0x0006e7bc     0x24  smart_config.o [6]
  .rodata              const    0x0006e7e0     0x24  smart_config.o [6]
  .rodata              const    0x0006e804     0x24  dhcp_server.o [6]
  .text                ro code  0x0006e828     0x24  fsl_uart_irq.o [1]
  .text                ro code  0x0006e84c     0x22  fpinit_M.o [5]
  .iar.init_table      const    0x0006e870     0x5c  - Linker created -
  .rodata              const    0x0006e8cc     0x20  wifimgr.o [6]
  .rodata              const    0x0006e8ec     0x20  wifimgr.o [6]
  .rodata              const    0x0006e90c     0x20  wifimgr.o [6]
  .rodata              const    0x0006e92c     0x20  smart_config.o [6]
  .rodata              const    0x0006e94c     0x20  memp.o [6]
  .rodata              const    0x0006e96c     0x20  memp.o [6]
  .rodata              const    0x0006e98c     0x20  fsl_sim_hal.o [4]
  .rodata              const    0x0006e9ac     0x20  dhcp_server.o [6]
  .text                ro code  0x0006e9cc     0x20  cmain_call_ctors.o [7]
  .text                ro code  0x0006e9ec     0x18  cppinit.o [3]
  .rodata              const    0x0006ea04     0x1c  mxchipWNET.o [6]
  .rodata              const    0x0006ea20     0x1c  wifimgr.o [6]
  .rodata              const    0x0006ea3c     0x1c  wifimgr.o [6]
  .rodata              const    0x0006ea58     0x1c  wifimgr.o [6]
  .rodata              const    0x0006ea74     0x1c  smart_config.o [6]
  .rodata              const    0x0006ea90     0x1c  smart_config.o [6]
  .rodata              const    0x0006eaac     0x1c  smart_config.o [6]
  .rodata              const    0x0006eac8     0x1c  smart_config.o [6]
  .rodata              const    0x0006eae4     0x1c  wwd_wifi.o [6]
  .text                ro code  0x0006eb00     0x1c  crt0_IAR.o [1]
  .text                ro code  0x0006eb1c     0x1a  cmain.o [7]
  .rodata              const    0x0006eb38     0x19  fsl_edma_common.o [1]
  .rodata              const    0x0006eb54     0x18  fsl_uart_common.o [1]
  .rodata              const    0x0006eb6c     0x18  wifimgr.o [6]
  .rodata              const    0x0006eb84     0x18  wifimgr.o [6]
  .rodata              const    0x0006eb9c     0x18  smart_config.o [6]
  .rodata              const    0x0006ebb4     0x18  smart_config.o [6]
  .rodata              const    0x0006ebcc     0x18  smart_config.o [6]
  .rodata              const    0x0006ebe4     0x18  smart_config.o [6]
  .rodata              const    0x0006ebfc     0x18  smart_config.o [6]
  .rodata              const    0x0006ec14     0x18  smart_config.o [6]
  .rodata              const    0x0006ec2c     0x18  smart_config.o [6]
  .rodata              const    0x0006ec44     0x18  smart_config.o [6]
  .rodata              const    0x0006ec5c     0x18  smart_config.o [6]
  .text                ro code  0x0006ec74     0x16  xprout.o [3]
  .text                ro code  0x0006ec8c      0xc  putchar.o [3]
  .rodata              const    0x0006ec98     0x14  wifimgr.o [6]
  .rodata              const    0x0006ecac     0x14  wifimgr.o [6]
  .rodata              const    0x0006ecc0     0x14  wifimgr.o [6]
  .rodata              const    0x0006ecd4     0x14  wifimgr.o [6]
  .rodata              const    0x0006ece8     0x14  wifimgr.o [6]
  .rodata              const    0x0006ecfc     0x14  wifimgr.o [6]
  .rodata              const    0x0006ed10     0x14  wifimgr.o [6]
  .rodata              const    0x0006ed24     0x14  fsl_sim_hal_K64F12.o [4]
  .rodata              const    0x0006ed38     0x14  smart_config.o [6]
  .rodata              const    0x0006ed4c     0x14  smart_config.o [6]
  .rodata              const    0x0006ed60     0x14  smart_config.o [6]
  .rodata              const    0x0006ed74     0x14  smart_config.o [6]
  .rodata              const    0x0006ed88     0x14  smart_config.o [6]
  .rodata              const    0x0006ed9c     0x14  aes_wrap.o [6]
  .rodata              const    0x0006edb0     0x14  wwd_wifi.o [6]
  .rodata              const    0x0006edc4     0x14  wwd_wifi.o [6]
  .rodata              const    0x0006edd8     0x14  SDPCM.o [6]
  .rodata              const    0x0006edec     0x14  tasks.o [6]
  .rodata              const    0x0006ee00     0x14  wiced_network.o [6]
  .rodata              const    0x0006ee14     0x14  fsl_gpio_common.o [4]
  .rodata              const    0x0006ee28     0x14  fsl_gpio_common.o [4]
  .text                ro code  0x0006ee3c     0x12  fsl_dspi_irq.o [1]
  .rodata              const    0x0006ee50     0x10  mxchipWNET.o [6]
  .rodata              const    0x0006ee60     0x10  mxchipWNET.o [6]
  .rodata              const    0x0006ee70     0x10  wiced_rtos.o [6]
  .rodata              const    0x0006ee80     0x10  wiced_rtos.o [6]
  .rodata              const    0x0006ee90     0x10  wifimgr.o [6]
  .rodata              const    0x0006eea0     0x10  wifimgr.o [6]
  .rodata              const    0x0006eeb0     0x10  wifimgr.o [6]
  .rodata              const    0x0006eec0     0x10  wifimgr.o [6]
  .rodata              const    0x0006eed0     0x10  wifimgr.o [6]
  .rodata              const    0x0006eee0     0x10  wifimgr.o [6]
  .rodata              const    0x0006eef0     0x10  wifimgr.o [6]
  .rodata              const    0x0006ef00     0x10  wifimgr.o [6]
  .rodata              const    0x0006ef10     0x10  wifimgr.o [6]
  .rodata              const    0x0006ef20     0x10  fsl_gpio_driver.o [4]
  .rodata              const    0x0006ef30     0x10  smart_config.o [6]
  .rodata              const    0x0006ef40     0x10  smart_config.o [6]
  .rodata              const    0x0006ef50     0x10  smart_config.o [6]
  .rodata              const    0x0006ef60     0x10  smart_config.o [6]
  .rodata              const    0x0006ef70     0x10  smart_config.o [6]
  .rodata              const    0x0006ef80     0x10  smart_config.o [6]
  .rodata              const    0x0006ef90     0x10  smart_config.o [6]
  .rodata              const    0x0006efa0     0x10  smart_config.o [6]
  .rodata              const    0x0006efb0     0x10  smart_config.o [6]
  .rodata              const    0x0006efc0     0x10  dns.o [6]
  .rodata              const    0x0006efd0     0x10  tcp.o [6]
  .rodata              const    0x0006efe0     0x10  wwd_wifi.o [6]
  .rodata              const    0x0006eff0     0x10  wwd_wifi.o [6]
  .rodata              const    0x0006f000     0x10  wwd_wifi.o [6]
  .rodata              const    0x0006f010     0x10  wwd_wifi.o [6]
  .rodata              const    0x0006f020     0x10  wwd_ap.o [6]
  .rodata              const    0x0006f030     0x10  lwiptcpip.o [6]
  .rodata              const    0x0006f040      0xc  wiced_rtos.o [6]
  .rodata              const    0x0006f04c      0xc  wifimgr.o [6]
  .rodata              const    0x0006f058      0xc  wifimgr.o [6]
  .rodata              const    0x0006f064      0xc  wifimgr.o [6]
  .rodata              const    0x0006f070      0xc  wifimgr.o [6]
  .rodata              const    0x0006f07c      0xc  wifimgr.o [6]
  .rodata              const    0x0006f088      0xc  wifimgr.o [6]
  .rodata              const    0x0006f094      0xc  wifimgr.o [6]
  .rodata              const    0x0006f0a0      0xc  fsl_edma_hal.o [4]
  .rodata              const    0x0006f0ac      0xc  fsl_gpio_driver.o [4]
  .rodata              const    0x0006f0b8      0xc  fsl_gpio_driver.o [4]
  .rodata              const    0x0006f0c4      0xc  wwd_thread.o [6]
  .rodata              const    0x0006f0d0      0xc  smart_config.o [6]
  .rodata              const    0x0006f0dc      0xc  smart_config.o [6]
  .rodata              const    0x0006f0e8      0xc  smart_config.o [6]
  .rodata              const    0x0006f0f4      0xc  smart_config.o [6]
  .rodata              const    0x0006f100      0xc  smart_config.o [6]
  .rodata              const    0x0006f10c      0xc  smart_config.o [6]
  .rodata              const    0x0006f118      0xc  smart_config.o [6]
  .rodata              const    0x0006f124      0xc  smart_config.o [6]
  .rodata              const    0x0006f130      0xc  smart_config.o [6]
  .rodata              const    0x0006f13c      0xc  smart_config.o [6]
  .rodata              const    0x0006f148      0xc  smart_config.o [6]
  .rodata              const    0x0006f154      0xc  smart_config.o [6]
  .rodata              const    0x0006f160      0xc  smart_config.o [6]
  .rodata              const    0x0006f16c      0xc  smart_config.o [6]
  .rodata              const    0x0006f178      0xc  smart_config.o [6]
  .rodata              const    0x0006f184      0xc  smart_config.o [6]
  .rodata              const    0x0006f190      0xc  smart_config.o [6]
  .rodata              const    0x0006f19c      0xc  smart_config.o [6]
  .rodata              const    0x0006f1a8      0xc  smart_config.o [6]
  .rodata              const    0x0006f1b4      0xc  smart_config.o [6]
  .rodata              const    0x0006f1c0      0xc  smart_config.o [6]
  .rodata              const    0x0006f1cc      0xc  smart_config.o [6]
  .rodata              const    0x0006f1d8      0xc  smart_config.o [6]
  .rodata              const    0x0006f1e4      0xc  smart_config.o [6]
  .rodata              const    0x0006f1f0      0xc  smart_config.o [6]
  .rodata              const    0x0006f1fc      0xc  smart_config.o [6]
  .rodata              const    0x0006f208      0xc  smart_config.o [6]
  .rodata              const    0x0006f214      0xc  dns.o [6]
  .rodata              const    0x0006f220      0xc  wwd_wifi.o [6]
  .rodata              const    0x0006f22c      0xc  wwd_wifi.o [6]
  .rodata              const    0x0006f238      0xc  wwd_wifi.o [6]
  .rodata              const    0x0006f244      0xc  wwd_wifi.o [6]
  .rodata              const    0x0006f250      0xc  wwd_management.o [6]
  .rodata              const    0x0006f25c      0xc  wwd_management.o [6]
  .rodata              const    0x0006f268      0xc  dns_redirect.o [6]
  .rodata              const    0x0006f274      0xc  dns_redirect.o [6]
  .rodata              const    0x0006f280      0xc  wwd_ap.o [6]
  .rodata              const    0x0006f28c      0xc  wwd_ap.o [6]
  .rodata              const    0x0006f298      0xc  wwd_ap.o [6]
  .rodata              const    0x0006f2a4      0xc  fsl_dspi_common.o [4]
  .rodata              const    0x0006f2b0      0xc  fsl_gpio_hal.o [4]
  .rodata              const    0x0006f2bc      0xc  wwd_internal.o [6]
  .rodata              const    0x0006f2c8      0xc  dhcp_server.o [6]
  .rodata              const    0x0006f2d4      0xc  wiced_lib.o [6]
  .text                ro code  0x0006f2e0      0xc  fsl_rtc_irq.o [1]
  .text                ro code  0x0006f2ec      0xc  cstartup_M.o [7]
  .rodata              const    0x0006f2f8      0x8  MICOConfig.o [1]
  .rodata              const    0x0006f300      0x8  wifimgr.o [6]
  .rodata              const    0x0006f308      0x8  mico_ethif.o [6]
  .rodata              const    0x0006f310      0x8  mico_ethif.o [6]
  .rodata              const    0x0006f318      0x8  fsl_edma_hal.o [4]
  .rodata              const    0x0006f320      0x8  fsl_os_abstraction_free_rtos.o [4]
  .rodata              const    0x0006f328      0x8  smart_config.o [6]
  .rodata              const    0x0006f330      0x8  smart_config.o [6]
  .rodata              const    0x0006f338      0x8  smart_config.o [6]
  .rodata              const    0x0006f340      0x8  tcp.o [6]
  .rodata              const    0x0006f348      0x8  wwd_wifi.o [6]
  .rodata              const    0x0006f350      0x8  wwd_wifi.o [6]
  .rodata              const    0x0006f358      0x8  wwd_wifi.o [6]
  .rodata              const    0x0006f360      0x8  wwd_wifi.o [6]
  .rodata              const    0x0006f368      0x8  wwd_wifi.o [6]
  .rodata              const    0x0006f370      0x8  wwd_management.o [6]
  .rodata              const    0x0006f378      0x8  wwd_management.o [6]
  .rodata              const    0x0006f380      0x8  ostimers.o [6]
  .rodata              const    0x0006f388      0x8  tasks.o [6]
  .rodata              const    0x0006f390      0x8  etharp.o [6]
  .rodata              const    0x0006f398      0x8  etharp.o [6]
  .rodata              const    0x0006f3a0      0x8  wiced_network.o [6]
  .rodata              const    0x0006f3a8      0x8  wwd_ap.o [6]
  .rodata              const    0x0006f3b0      0x8  fsl_gpio_common.o [4]
  .rodata              const    0x0006f3b8      0x8  wwd_network.o [6]
  .rodata              const    0x0006f3c0      0x8  dhcp_server.o [6]
  .rodata              const    0x0006f3c8      0x8  dhcp_server.o [6]
  .rodata              const    0x0006f3d0      0x8  dhcp_server.o [6]
  .rodata              const    0x0006f3d8      0x8  dhcp_server.o [6]
  .rodata              const    0x0006f3e0      0x4  define.o [1]
  .rodata              const    0x0006f3e4      0x4  wiced_rtos.o [6]
  .rodata              const    0x0006f3e8      0x4  fsl_clock_manager.o [4]
  .rodata              const    0x0006f3ec      0x4  fsl_clock_manager.o [4]
  .rodata              const    0x0006f3f0      0x4  smart_config.o [6]
  .rodata              const    0x0006f3f4      0x4  smart_config.o [6]
  .rodata              const    0x0006f3f8      0x4  ip_addr.o [6]
  .rodata              const    0x0006f3fc      0x4  ip_addr.o [6]
  .rodata              const    0x0006f400      0x4  dhcp_server.o [6]
  .rodata              const    0x0006f404      0x4  dhcp_server.o [6]
  .rodata              const    0x0006f408      0x4  dhcp_server.o [6]
  .rodata              const    0x0006f40c      0x4  dhcp_server.o [6]
  .rodata              const    0x0006f410      0x4  dhcp_server.o [6]
  SHT$$PREINIT_ARRAY            0x0006f414      0x4  <Block>
    .prepreinit_array  const    0x0006f414      0x4  xlocale_c.o [3]
  SHT$$INIT_ARRAY               0x0006f418      0x0  <Block>
  .text                ro code  0x0006f418      0x0  cstart_clearlocks.o [7]
  .text                ro code  0x0006f418      0x0  cstart_closeall.o [7]
  .rodata              const    0x0006f418      0x0  zero_init3.o [7]
  .rodata              const    0x0006f418      0x0  packbits_init.o [7]
  .data_init                    0x0006f418     0xed  <Block>
    Initializer bytes  const    0x0006f418     0xed  <for .data-1>
  Initializer bytes    const    0x0006f505     0x14  <for P3 s0>
                              - 0x0006f519  0x65109

"P3":                                       0x1655c
  .data                         0x20000000    0x174  <Block>
    .data-1                     0x20000000    0x174  <Init block>
      .data            inited   0x20000000      0x8  fsl_uart_common.o [1]
      .data            inited   0x20000008      0x4  HTTPUtils.o [1]
      .data            inited   0x2000000c      0x4  json_object.o [1]
      .data            inited   0x20000010      0x4  json_object.o [1]
      .data            inited   0x20000014      0x4  json_tokener.o [1]
      .data            inited   0x20000018     0x18  MDNSUtils.o [1]
      .data            inited   0x20000030      0x4  MICOConfig.o [1]
      .data            inited   0x20000034      0x4  SppProtocol.o [1]
      .data            inited   0x20000038      0x4  wifimgr.o [6]
      .data            inited   0x2000003c      0x4  wifimgr.o [6]
      .data            inited   0x20000040      0x4  wifimgr.o [6]
      .data            inited   0x20000044      0x4  wifimgr.o [6]
      .data            inited   0x20000048      0x4  wifimgr.o [6]
      .data            inited   0x2000004c      0x4  smart_config.o [6]
      .data            inited   0x20000050      0x1  smart_config.o [6]
      .data            inited   0x20000054      0x4  wwd_rtos.o [6]
      .data            inited   0x20000058     0x10  tcp.o [6]
      .data            inited   0x20000068      0x4  tcp.o [6]
      .data            inited   0x2000006c      0x4  wwd_firmware.o [6]
      .data            inited   0x20000070      0x4  wifi.o [6]
      .data            inited   0x20000074      0x4  SDPCM.o [6]
      .data            inited   0x20000078      0x4  port.o [6]
      .data            inited   0x2000007c      0x4  tasks.o [6]
      .data            inited   0x20000080      0x4  wwd_ap.o [6]
      .data            inited   0x20000084      0x4  dhcp.o [6]
      .data            inited   0x20000088      0xc  wwd_internal.o [6]
      .data            inited   0x20000094     0x40  xfiles.o [3]
      .data            inited   0x200000d4     0x40  xfiles.o [3]
      .data            inited   0x20000114     0x40  xfiles.o [3]
      .data            inited   0x20000154     0x20  xfiles.o [3]
  CSTACK                        0x20000178    0x200  <Block>
    CSTACK             uninit   0x20000178    0x200  <Block tail>
  HEAP                          0x20000378  0x16000  <Block>
    HEAP               uninit   0x20000378  0x16000  <Block tail>
  P3 s0                         0x20016378    0x1e4  <Init block>
    __DLIB_PERTHREAD   inited   0x20016378     0x8c  rand.o [3]
    __DLIB_PERTHREAD   inited   0x20016404     0x88  localeconv.o [3]
    __DLIB_PERTHREAD   inited   0x2001648c     0x74  setlocale.o [3]
    __DLIB_PERTHREAD   inited   0x20016500     0x2c  xttotm.o [3]
    __DLIB_PERTHREAD   inited   0x2001652c     0x1c  asctime.o [3]
    __DLIB_PERTHREAD   inited   0x20016548      0x8  localtim.o [3]
    __DLIB_PERTHREAD   inited   0x20016550      0x4  errno.o [3]
    __DLIB_PERTHREAD   inited   0x20016554      0x4  xisdst.o [3]
    __DLIB_PERTHREAD   inited   0x20016558      0x4  xisdstData.o [3]
                              - 0x2001655c  0x1655c

"P4":                                        0xec94
  default              zero     0x2001655c      0xc  flash_kinetis.o [1]
  .bss                          0x20016568   0xec88  <Block>
    .bss               zero     0x20016568      0x4  define.o [1]
    .bss               zero     0x2001656c     0x10  EasyLink.o [1]
    .bss               zero     0x2001657c      0x4  EasyLink.o [1]
    .bss               zero     0x20016580      0x4  EasyLinkSoftAP.o [1]
    .bss               zero     0x20016584    0x140  edma.o [1]
    .bss               zero     0x200166c4   0x4308  ethernetif.o [1]
    .bss               zero     0x2001a9cc     0x4c  fsl_debug_console.o [1]
    .bss               zero     0x2001aa18      0x4  fsl_edma_driver.o [1]
    .bss               zero     0x2001aa1c     0x18  fsl_uart_common.o [1]
    .bss               zero     0x2001aa34    0x100  HomeProtocolParse.o [1]
    .bss               zero     0x2001ab34    0x514  k64_gpio.o [1]
    .bss               zero     0x2001b048     0x4c  k64_spi.o [1]
    .bss               zero     0x2001b094   0x2078  k64_spi.o [1]
    .bss               zero     0x2001d10c      0x8  ksdk_platform.o [1]
    .bss               zero     0x2001d114      0x4  LocalTcpServer.o [1]
    .bss               zero     0x2001d118      0x4  MDNSUtils.o [1]
    .bss               zero     0x2001d11c    0x810  MICOAppEntrance.o [1]
    .bss               zero     0x2001d92c      0x4  MICOBonjour.o [1]
    .bss               zero     0x2001d930      0xc  MICOConfigDelegate.o [1]
    .bss               zero     0x2001d93c      0x4  MICOConfigServer.o [1]
    .bss               zero     0x2001d940      0x4  MicoDriverFlash.o [1]
    .bss               zero     0x2001d944     0x44  MicoDriverUart.o [1]
    .bss               zero     0x2001d988     0x3c  MicoDriverUart.o [1]
    .bss               zero     0x2001d9c4     0x18  MICOEntrance.o [1]
    .bss               zero     0x2001d9dc     0x54  MICONotificationCenter.o [1]
    .bss               zero     0x2001da30      0x8  MICONTPClient.o [1]
    .bss               zero     0x2001da38      0x4  MICOParaStorage.o [1]
    .bss               zero     0x2001da3c     0x14  MICOSystemMonitor.o [1]
    .bss               zero     0x2001da50     0x10  platform.o [1]
    .bss               zero     0x2001da60      0x8  RemoteTcpClient.o [1]
    .bss               zero     0x2001da68    0x80c  wwd_bus.o [1]
    .bss               zero     0x2001e274      0x4  mxchipWNET.o [6]
    .bss               zero     0x2001e278      0x4  mxchipWNET.o [6]
    .bss               zero     0x2001e27c      0x4  mxchipWNET.o [6]
    .bss               zero     0x2001e280      0x4  mxchipWNET.o [6]
    .bss               zero     0x2001e284      0x4  mxchipWNET.o [6]
    .bss               zero     0x2001e288      0x4  mxchipWNET.o [6]
    .bss               zero     0x2001e28c     0x10  mxchipWNET.o [6]
    .bss               zero     0x2001e29c      0x8  wiced_rtos.o [6]
    .bss               zero     0x2001e2a4      0x4  wiced_rtos.o [6]
    .bss               zero     0x2001e2a8      0x4  wiced_rtos.o [6]
    .bss               zero     0x2001e2ac      0x4  wiced_rtos.o [6]
    .bss               zero     0x2001e2b0      0x4  wifimgr.o [6]
    .bss               zero     0x2001e2b4     0x70  wifimgr.o [6]
    .bss               zero     0x2001e324     0x3c  wifimgr.o [6]
    .bss               zero     0x2001e360      0x4  wifimgr.o [6]
    .bss               zero     0x2001e364      0x8  wifimgr.o [6]
    .bss               zero     0x2001e36c      0x8  wifimgr.o [6]
    .bss               zero     0x2001e374     0x3c  wifimgr.o [6]
    .bss               zero     0x2001e3b0     0x3c  wifimgr.o [6]
    .bss               zero     0x2001e3ec     0x14  wifimgr.o [6]
    .bss               zero     0x2001e400      0x4  wifimgr.o [6]
    .bss               zero     0x2001e404      0x4  wifimgr.o [6]
    .bss               zero     0x2001e408      0x4  wifimgr.o [6]
    .bss               zero     0x2001e40c      0x4  wifimgr.o [6]
    .bss               zero     0x2001e410      0x4  wifimgr.o [6]
    .bss               zero     0x2001e414      0x4  wifimgr.o [6]
    .bss               zero     0x2001e418     0x3c  wifimgr.o [6]
    .bss               zero     0x2001e454      0x4  wifimgr.o [6]
    .bss               zero     0x2001e458      0x4  wifimgr.o [6]
    .bss               zero     0x2001e45c     0x24  wifimgr.o [6]
    .bss               zero     0x2001e480      0x4  wifimgr.o [6]
    .bss               zero     0x2001e484      0x4  wifimgr.o [6]
    .bss               zero     0x2001e488     0x44  mico_ethif.o [6]
    .bss               zero     0x2001e4cc      0x4  mico_ethif.o [6]
    .bss               zero     0x2001e4d0      0x4  mico_ethif.o [6]
    .bss               zero     0x2001e4d4      0x4  mico_ethif.o [6]
    .bss               zero     0x2001e4d8      0x4  mico_ethif.o [6]
    .bss               zero     0x2001e4dc     0x3c  mico_ethif.o [6]
    .bss               zero     0x2001e518     0x40  mico_ethif.o [6]
    .bss               zero     0x2001e558      0x8  mico_ethif.o [6]
    .bss               zero     0x2001e560      0x4  mico_ethif.o [6]
    .bss               zero     0x2001e564      0x4  mico_ethif.o [6]
    .bss               zero     0x2001e568      0xc  fsl_dspi_shared_function.o [4]
    .bss               zero     0x2001e574      0x4  ip.o [6]
    .bss               zero     0x2001e578      0x4  ip.o [6]
    .bss               zero     0x2001e57c      0x4  ip.o [6]
    .bss               zero     0x2001e580      0x4  ip.o [6]
    .bss               zero     0x2001e584      0x4  ip.o [6]
    .bss               zero     0x2001e588      0x4  wwd_thread.o [6]
    .bss               zero     0x2001e58c      0x4  wwd_thread.o [6]
    .bss               zero     0x2001e590      0x4  wwd_thread.o [6]
    .bss               zero     0x2001e594      0x4  wwd_thread.o [6]
    .bss               zero     0x2001e598      0x4  logging.o [6]
    .bss               zero     0x2001e59c      0x4  logging.o [6]
    .bss               zero     0x2001e5a0      0x4  smart_config.o [6]
    .bss               zero     0x2001e5a4      0x4  smart_config.o [6]
    .bss               zero     0x2001e5a8      0x4  smart_config.o [6]
    .bss               zero     0x2001e5ac     0x50  smart_config.o [6]
    .bss               zero     0x2001e5fc    0x100  smart_config.o [6]
    .bss               zero     0x2001e6fc    0x100  smart_config.o [6]
    .bss               zero     0x2001e7fc      0x4  smart_config.o [6]
    .bss               zero     0x2001e800      0x4  smart_config.o [6]
    .bss               zero     0x2001e804     0x10  smart_config.o [6]
    .bss               zero     0x2001e814      0x4  smart_config.o [6]
    .bss               zero     0x2001e818      0x4  smart_config.o [6]
    .bss               zero     0x2001e81c      0x4  smart_config.o [6]
    .bss               zero     0x2001e820      0x4  smart_config.o [6]
    .bss               zero     0x2001e824    0x500  smart_config.o [6]
    .bss               zero     0x2001ed24      0x4  smart_config.o [6]
    .bss               zero     0x2001ed28      0x4  smart_config.o [6]
    .bss               zero     0x2001ed2c      0x4  smart_config.o [6]
    .bss               zero     0x2001ed30      0x4  smart_config.o [6]
    .bss               zero     0x2001ed34     0x40  smart_config.o [6]
    .bss               zero     0x2001ed74     0x20  smart_config.o [6]
    .bss               zero     0x2001ed94      0x8  smart_config.o [6]
    .bss               zero     0x2001ed9c     0x28  smart_config.o [6]
    .bss               zero     0x2001edc4      0x8  smart_config.o [6]
    .bss               zero     0x2001edcc      0xc  smart_config.o [6]
    .bss               zero     0x2001edd8      0x4  smart_config.o [6]
    .bss               zero     0x2001eddc      0x4  smart_config.o [6]
    .bss               zero     0x2001ede0      0x4  smart_config.o [6]
    .bss               zero     0x2001ede4      0x4  smart_config.o [6]
    .bss               zero     0x2001ede8      0x4  smart_config.o [6]
    .bss               zero     0x2001edec      0x8  smart_config.o [6]
    .bss               zero     0x2001edf4      0x4  smart_config.o [6]
    .bss               zero     0x2001edf8      0x4  smart_config.o [6]
    .bss               zero     0x2001edfc      0x4  smart_config.o [6]
    .bss               zero     0x2001ee00     0x18  dlmalloc.o [6]
    .bss               zero     0x2001ee18    0x1d8  dlmalloc.o [6]
    .bss               zero     0x2001eff0      0x4  wps_host.o [6]
    .bss               zero     0x2001eff4      0x4  wps_host.o [6]
    .bss               zero     0x2001eff8      0x4  dns.o [6]
    .bss               zero     0x2001effc    0x460  dns.o [6]
    .bss               zero     0x2001f45c      0x8  dns.o [6]
    .bss               zero     0x2001f464    0x204  dns.o [6]
    .bss               zero     0x2001f668      0x4  dns.o [6]
    .bss               zero     0x2001f66c      0x4  sockets.o [6]
    .bss               zero     0x2001f670     0x60  sockets.o [6]
    .bss               zero     0x2001f6d0    0x180  sockets.o [6]
    .bss               zero     0x2001f850      0x4  sockets.o [6]
    .bss               zero     0x2001f854      0x4  sockets.o [6]
    .bss               zero     0x2001f858     0x40  memp.o [6]
    .bss               zero     0x2001f898     0x40  memp.o [6]
    .bss               zero     0x2001f8d8   0x517c  memp.o [6]
    .bss               zero     0x20024a54      0x4  tcp.o [6]
    .bss               zero     0x20024a58      0x4  tcp.o [6]
    .bss               zero     0x20024a5c      0x4  tcp.o [6]
    .bss               zero     0x20024a60      0x4  tcp.o [6]
    .bss               zero     0x20024a64      0x4  tcp.o [6]
    .bss               zero     0x20024a68      0x4  tcp.o [6]
    .bss               zero     0x20024a6c      0x4  tcp.o [6]
    .bss               zero     0x20024a70      0x4  tcp.o [6]
    .bss               zero     0x20024a74      0x4  wwd_wifi.o [6]
    .bss               zero     0x20024a78      0x4  wwd_wifi.o [6]
    .bss               zero     0x20024a7c      0x4  wwd_wifi.o [6]
    .bss               zero     0x20024a80      0x4  wwd_wifi.o [6]
    .bss               zero     0x20024a84      0x4  wwd_wifi.o [6]
    .bss               zero     0x20024a88      0x4  wifi.o [6]
    .bss               zero     0x20024a8c     0x3c  SDPCM.o [6]
    .bss               zero     0x20024ac8      0x4  SDPCM.o [6]
    .bss               zero     0x20024acc      0x4  SDPCM.o [6]
    .bss               zero     0x20024ad0      0x4  SDPCM.o [6]
    .bss               zero     0x20024ad4      0x4  SDPCM.o [6]
    .bss               zero     0x20024ad8      0x4  SDPCM.o [6]
    .bss               zero     0x20024adc      0x4  SDPCM.o [6]
    .bss               zero     0x20024ae0      0x4  SDPCM.o [6]
    .bss               zero     0x20024ae4      0x4  SDPCM.o [6]
    .bss               zero     0x20024ae8     0x14  tcp_in.o [6]
    .bss               zero     0x20024afc      0x4  tcp_in.o [6]
    .bss               zero     0x20024b00      0x4  tcp_in.o [6]
    .bss               zero     0x20024b04      0x4  tcp_in.o [6]
    .bss               zero     0x20024b08      0x4  tcp_in.o [6]
    .bss               zero     0x20024b0c      0x4  tcp_in.o [6]
    .bss               zero     0x20024b10      0x4  tcp_in.o [6]
    .bss               zero     0x20024b14      0x8  wwd_management.o [6]
    .bss               zero     0x20024b1c     0x14  ostimers.o [6]
    .bss               zero     0x20024b30     0x14  ostimers.o [6]
    .bss               zero     0x20024b44      0x4  ostimers.o [6]
    .bss               zero     0x20024b48      0x4  ostimers.o [6]
    .bss               zero     0x20024b4c      0x4  ostimers.o [6]
    .bss               zero     0x20024b50      0x4  ostimers.o [6]
    .bss               zero     0x20024b54      0x4  tasks.o [6]
    .bss               zero     0x20024b58     0xc8  tasks.o [6]
    .bss               zero     0x20024c20     0x14  tasks.o [6]
    .bss               zero     0x20024c34     0x14  tasks.o [6]
    .bss               zero     0x20024c48      0x4  tasks.o [6]
    .bss               zero     0x20024c4c      0x4  tasks.o [6]
    .bss               zero     0x20024c50     0x14  tasks.o [6]
    .bss               zero     0x20024c64     0x14  tasks.o [6]
    .bss               zero     0x20024c78      0x4  tasks.o [6]
    .bss               zero     0x20024c7c     0x14  tasks.o [6]
    .bss               zero     0x20024c90      0x4  tasks.o [6]
    .bss               zero     0x20024c94      0x4  tasks.o [6]
    .bss               zero     0x20024c98      0x4  tasks.o [6]
    .bss               zero     0x20024c9c      0x4  tasks.o [6]
    .bss               zero     0x20024ca0      0x4  tasks.o [6]
    .bss               zero     0x20024ca4      0x4  tasks.o [6]
    .bss               zero     0x20024ca8      0x4  tasks.o [6]
    .bss               zero     0x20024cac      0x4  tasks.o [6]
    .bss               zero     0x20024cb0      0x4  tasks.o [6]
    .bss               zero     0x20024cb4      0x4  tasks.o [6]
    .bss               zero     0x20024cb8     0xa0  etharp.o [6]
    .bss               zero     0x20024d58      0x4  mxchip_debug.o [6]
    .bss               zero     0x20024d5c      0x4  mxchip_debug.o [6]
    .bss               zero     0x20024d60     0x28  dnsclient.o [6]
    .bss               zero     0x20024d88      0x4  dnsclient.o [6]
    .bss               zero     0x20024d8c      0x4  udp.o [6]
    .bss               zero     0x20024d90     0x88  wiced_network.o [6]
    .bss               zero     0x20024e18     0x3c  wiced_network.o [6]
    .bss               zero     0x20024e54     0x38  wiced_network.o [6]
    .bss               zero     0x20024e8c      0x4  wiced_network.o [6]
    .bss               zero     0x20024e90      0x4  wiced_network.o [6]
    .bss               zero     0x20024e94     0x14  wiced_network.o [6]
    .bss               zero     0x20024ea8     0x14  wiced_network.o [6]
    .bss               zero     0x20024ebc     0x20  wiced_network.o [6]
    .bss               zero     0x20024edc      0x4  wwd_ap.o [6]
    .bss               zero     0x20024ee0     0x28  dhcp.o [6]
    .bss               zero     0x20024f08      0xc  dhcp.o [6]
    .bss               zero     0x20024f14      0x4  igmp.o [6]
    .bss               zero     0x20024f18      0x4  igmp.o [6]
    .bss               zero     0x20024f1c      0x4  igmp.o [6]
    .bss               zero     0x20024f20      0x4  igmp.o [6]
    .bss               zero     0x20024f24      0x4  netif.o [6]
    .bss               zero     0x20024f28      0x4  netif.o [6]
    .bss               zero     0x20024f2c     0x44  netif.o [6]
    .bss               zero     0x20024f70      0x4  lwiptcpip.o [6]
    .bss               zero     0x20024f74      0x4  lwiptcpip.o [6]
    .bss               zero     0x20024f78      0x4  lwiptcpip.o [6]
    .bss               zero     0x20024f7c      0x4  raw.o [6]
    .bss               zero     0x20024f80      0x4  wwd_internal.o [6]
    .bss               zero     0x20024f84      0x4  lwiptimers.o [6]
    .bss               zero     0x20024f88      0x4  lwiptimers.o [6]
    .bss               zero     0x20024f8c     0x20  dhcp_server.o [6]
    .bss               zero     0x20024fac     0x64  dhcp_server.o [6]
    .bss               zero     0x20025010     0x50  xfiles.o [3]
    .bss               zero     0x20025060     0x50  xfiles.o [3]
    .bss               zero     0x200250b0      0x4  xgetmemchunk.o [3]
    .bss               zero     0x200250b4     0x38  xsyslock_mtx.o [3]
    .bss               zero     0x200250ec     0x54  xlocale_c.o [3]
    .bss               zero     0x20025140     0x80  XShHandles.o [3]
    .bss               zero     0x200251c0      0x2  ip.o [6]
    .bss               zero     0x200251c2      0x2  tcp.o [6]
    .bss               zero     0x200251c4      0x2  SDPCM.o [6]
    .bss               zero     0x200251c6      0x2  tcp_in.o [6]
    .bss               zero     0x200251c8      0x2  wiced_network.o [6]
    .bss               zero     0x200251ca      0x1  printbuf.o [1]
    .bss               zero     0x200251cb      0x1  wifimgr.o [6]
    .bss               zero     0x200251cc      0x1  wifimgr.o [6]
    .bss               zero     0x200251cd      0x1  wifimgr.o [6]
    .bss               zero     0x200251ce      0x1  wwd_thread.o [6]
    .bss               zero     0x200251cf      0x1  wwd_thread.o [6]
    .bss               zero     0x200251d0      0x1  wwd_thread.o [6]
    .bss               zero     0x200251d1      0x1  smart_config.o [6]
    .bss               zero     0x200251d2      0x1  smart_config.o [6]
    .bss               zero     0x200251d3      0x1  smart_config.o [6]
    .bss               zero     0x200251d4      0x1  smart_config.o [6]
    .bss               zero     0x200251d5      0x1  wps_host.o [6]
    .bss               zero     0x200251d6      0x1  wps_host.o [6]
    .bss               zero     0x200251d7      0x1  dns.o [6]
    .bss               zero     0x200251d8      0x1  dns.o [6]
    .bss               zero     0x200251d9      0x1  tcp.o [6]
    .bss               zero     0x200251da      0x1  wwd_wifi.o [6]
    .bss               zero     0x200251db      0x1  wwd_wifi.o [6]
    .bss               zero     0x200251dc      0x1  wifi.o [6]
    .bss               zero     0x200251dd      0x1  SDPCM.o [6]
    .bss               zero     0x200251de      0x1  SDPCM.o [6]
    .bss               zero     0x200251df      0x1  SDPCM.o [6]
    .bss               zero     0x200251e0      0x1  SDPCM.o [6]
    .bss               zero     0x200251e1      0x1  SDPCM.o [6]
    .bss               zero     0x200251e2      0x1  SDPCM.o [6]
    .bss               zero     0x200251e3      0x1  SDPCM.o [6]
    .bss               zero     0x200251e4      0x1  tcp_in.o [6]
    .bss               zero     0x200251e5      0x1  tcp_in.o [6]
    .bss               zero     0x200251e6      0x1  etharp.o [6]
    .bss               zero     0x200251e7      0x1  wiced_network.o [6]
    .bss               zero     0x200251e8      0x1  wiced_network.o [6]
    .bss               zero     0x200251e9      0x1  wwd_ap.o [6]
    .bss               zero     0x200251ea      0x1  netif.o [6]
    .bss               zero     0x200251eb      0x1  wwd_bus_protocol.o [6]
    .bss               zero     0x200251ec      0x1  wwd_bus_protocol.o [6]
                              - 0x200251f0   0xec94

"P6":                                         0x100
  codeRam              zero     0x2002ff00    0x100  flash_kinetis.o [1]
                              - 0x20030000    0x100


*******************************************************************************
*** INIT TABLE
***

          Address     Size
          -------     ----
Zero (__iar_zero_init3)
    3 destination ranges, total size 0xed91:
          0x2001655c     0xc
          0x20016568  0xec85
          0x2002ff00   0x100

Copy/packbits (__iar_packbits_init3)
    1 source range, total size 0xed (63% of destination):
          0x0006f418    0xed
    1 destination range, total size 0x174:
          0x20000000   0x174

Copy/packbits (__iar_packbits_init3)
    1 source range, total size 0x14 (4% of destination):
          0x0006f505    0x14
    1 destination range, total size 0x1e4:
          0x20016378   0x1e4

Extra (__iar_cstart_call_ctors)



*******************************************************************************
*** MODULE SUMMARY
***

    Module                          ro code  ro data  rw data
    ------                          -------  -------  -------
C:\Users\b45112\Desktop\MICO-Freescale(20150826_milestone)\MICO-Freescale-k22\src\Build\FRDM_K64F_SPP\Obj: [1]
    EasyLink.o                        6 716                20
    EasyLinkSoftAP.o                  3 584                 4
    HTTPUtils.o                       5 088        2        4
    HomeProtocolParse.o                 208               256
    LocalTcpServer.o                  1 836                 4
    MDNSUtils.o                       3 296       15       28
    MICOAppEntrance.o                 1 084             2 064
    MICOBonjour.o                     1 144                 4
    MICOConfig.o                                  11        4
    MICOConfigDelegate.o              3 880                12
    MICOConfigMenu.o                  1 800
    MICOConfigServer.o                3 844                 4
    MICOEntrance.o                    4 696                24
    MICONTPClient.o                   1 328                 8
    MICONotificationCenter.o          1 076                84
    MICOParaStorage.o                   988                 4
    MICOSystemMonitor.o                 476                20
    MicoDriverFlash.o                   338                 4
    MicoDriverGpio.o                    464
    MicoDriverRtc.o                      12
    MicoDriverUart.o                    808               128
    MicoDriverWdg.o                       6
    RemoteTcpClient.o                 1 340                 8
    RingBufferUtils.o                    14
    SocketUtils.o                       840
    SppProtocol.o                       372        2        4
    StringUtils.o                     2 532
    URLUtils.o                          364
    UartRecv.o                          324
    arraylist.o                         212
    crt0_IAR.o                           28
    define.o                                       4        4
    edma.o                               96               320
    enet.o                              156
    ethernetif.o                      1 076            17 160
    flash_kinetis.o                     112               268
    flash_kinetisRamFunc.o               64
    fsl_debug_console.o                 266                76
    fsl_dspi_irq.o                       18
    fsl_edma_common.o                             25
    fsl_edma_driver.o                 1 628                 4
    fsl_edma_irq.o                      102
    fsl_rtc_irq.o                        12
    fsl_uart_common.o                             29       32
    fsl_uart_driver.o                 1 240
    fsl_uart_hal.o                      300
    fsl_uart_irq.o                       36
    gpio_pins.o                                   48
    hardware_init.o                     242
    json_object.o                     1 536       41        8
    json_tokener.o                    3 756        3        4
    json_util.o                         228
    k64_gpio.o                          764             1 300
    k64_spi.o                           744             8 388
    ksdk_platform.o                      92                 8
    linkhash.o                          844
    mii.o                               204
    pin_mux.o                         1 320
    platform.o                          804       56       16
    printbuf.o                          310                 1
    read_wifi_firmware.o            203 308
    startup.o                            88
    startup_MK64F12.o                 1 120
    system_MK64F12.o                    308
    wlan_platform.o                      68
    wwd_bus.o                           228             2 060
    ---------------------------------------------------------
    Total:                          269 768      236   32 337

command line: [2]
    ---------------------------------------------------------
    Total:

dl7M_tlf.a: [3]
    XShHandles.o                        224               128
    abort.o                               6
    asctime.o                            44        1       28
    cppinit.o                            24
    div.o                                14
    errno.o                              12                 4
    exit.o                                4
    fclose.o                            122
    fflush.o                            176
    fputc.o                              86
    fseek.o                              34
    getzone.o                            10
    isxxx.o                              40
    localeconv.o                        108        6      136
    localtim.o                          182                 8
    printf.o                             36
    putchar.o                            12
    rand.o                              224        5      140
    setlocale.o                          84        5      116
    snprintf.o                           68
    sprintf.o                            52
    srand.o                              32
    sscanf.o                             36
    strdup.o                             24
    strncasecmp.o                        78
    strncmp.o                            42
    strnlen.o                            22
    strrchr.o                            24
    strstr.o                             44
    tolower.o                            20
    toupper.o                            24
    vprintf.o                            24
    vsnprint.o                           60
    vsprintf.o                           44
    xcloseall.o                          88
    xencoding_sb.o                       96
    xfgpos.o                             12
    xfiles.o                                     143      384
    xfofind.o                           124
    xfspos.o                            214
    xfwprep.o                           182
    xgentime.o                        2 118
    xgetdst.o                           356
    xgetmemchunk.o                       44                 4
    xgettime.o                           66
    xisdst.o                            308                 4
    xisdstData.o                                   1        4
    xlocale_c.o                         438        4       84
    xmbcurmax.o                          10
    xmbtowc.o                            32
    xprintffull.o                     4 438
    xprout.o                             22
    xscanffull.o                      3 280
    xsnprout.o                           26
    xsprout.o                            10
    xsscin.o                             30
    xstoflt.o                           440
    xstol.o                             136
    xstoll.o                            164
    xstopfx.o                           292
    xstoul.o                            404
    xstoull.o                           432
    xstoxflt.o                          536
    xstrftim.o                          268
    xsyslock.o                           32
    xsyslock_mtx.o                      348                56
    xtls.o                                2
    xttotm.o                            392        2       44
    xwctob.o                             64
    xwctomb.o                            26
    ---------------------------------------------------------
    Total:                           17 466      167    1 140

ksdk_freertos_lib.a: [4]
    fsl_clock_K64F12.o                   50
    fsl_clock_manager.o                 352        8
    fsl_dmamux_hal.o                     40
    fsl_dspi_common.o                             12
    fsl_dspi_hal.o                      136
    fsl_dspi_master_driver.o            828
    fsl_dspi_shared_function.o           92      116       12
    fsl_dspi_slave_driver.o           1 148
    fsl_edma_hal.o                    1 140      184
    fsl_gpio_common.o                             48
    fsl_gpio_driver.o                   980      412
    fsl_gpio_hal.o                      112       72
    fsl_mcg_hal.o                       692
    fsl_os_abstraction_free_rtos.o      184       80
    fsl_sim_hal.o                       184       88
    fsl_sim_hal_K64F12.o                256       20
    ---------------------------------------------------------
    Total:                            6 194    1 040       12

m7M_tls.a: [5]
    DblAdd.o                            232
    DblCmpEq.o                           32
    DblCmpGe.o                           46
    DblCmpLe.o                           46
    DblDiv.o                            598
    DblMul.o                            418
    DblSub.o                            384
    DblToFlt.o                          144
    DblToI32.o                           88
    I32ToDbl.o                           48
    fpinit_M.o                           34
    xdnorm.o                             66
    xdscale.o                           280
    xdtento.o                           512
    xdunscal.o                           86
    xstold.o                            360
    ---------------------------------------------------------
    Total:                            3 374

mxchipWNet_cm4f_spi.a: [6]
    SDPCM.o                           3 072       23      105
    aes.o                             2 914   10 328
    aes_wrap.o                           48       20
    api_lib.o                         1 416
    api_msg.o                         3 756
    arc4.o                              224
    def.o                                54
    dhcp.o                            3 872        2       56
    dhcp_server.o                     1 616      132      132
    dlmalloc.o                        9 616               496
    dns.o                             1 668       28    1 654
    dns_redirect.o                      492       24
    dnsclient.o                         100                44
    etharp.o                          2 264       16      161
    heap_3.o                             56
    iar_mutex.o                          28
    icmp.o                              388
    igmp.o                            1 384                16
    inet_chksum.o                       368
    init.o                               32
    ip.o                              1 232                22
    ip_addr.o                           584        8
    list.o                              154
    logging.o                            68                 8
    lwiptcpip.o                         736       16       12
    lwiptimers.o                        768                 8
    memp.o                              204       64   20 988
    mftest.o                              8
    mico_ethif.o                        968       16      224
    mxchipWNET.o                      1 952       60       40
    mxchip_debug.o                                          8
    netbuf.o                            218
    netif.o                             856                77
    netifapi.o                           72
    ostimers.o                          880        8       56
    pbuf.o                            1 260
    port.o                              236        3        4
    portasm.o                           168
    queue.o                           1 288
    raw.o                               460                 4
    read_wifi_firmware.o                 24
    smart_config.o                   10 356    1 475    2 153
    sockets.o                         5 244       64      492
    sys.o                                40
    sys_arch.o                          672
    tasks.o                           2 648       30      360
    tcp.o                             3 588       36       55
    tcp_in.o                          5 068                48
    tcp_out.o                         3 266
    tcpip.o                             928
    udp.o                             1 644                 4
    wiced_lib.o                         140       12
    wiced_network.o                   1 068       28      336
    wiced_rtos.o                      1 474       48       20
    wifi.o                              192        2        9
    wifimgr.o                         6 620      945      495
    wps_host.o                           76                10
    wwd_ap.o                          1 170       63        9
    wwd_buffer.o                        176
    wwd_bus_protocol.o                1 780        2        2
    wwd_firmware.o                      768      783        4
    wwd_internal.o                      608       20       16
    wwd_management.o                    580       40        8
    wwd_network.o                       380        8
    wwd_rtos.o                          304        5        4
    wwd_thread.o                        584       12       19
    wwd_wifi.o                        5 228      476       22
    ---------------------------------------------------------
    Total:                          100 106   14 797   28 181

rt7M_tl.a: [7]
    ABImemclr.o                           6
    ABImemclr4.o                          6
    ABImemcpy_unaligned.o               118
    ABImemmove_unaligned.o              120
    ABImemset.o                         102
    ABImemset48.o                        58
    I64DivMod.o                         238
    I64DivZer.o                           2
    cexit.o                              18
    cmain.o                              26
    cmain_call_ctors.o                   32
    cstart_clearlocks.o
    cstart_closeall.o
    cstartup_M.o                         12
    data_init.o                          40
    memchr.o                             88
    memcmp_unaligned.o                   98
    packbits_init.o                     208
    strchr.o                             22
    strcmp_unaligned.o                   66
    strcpy_unaligned.o                   68
    strlen.o                             54
    strncpy_unaligned.o                 108
    zero_init3.o                         34
    ---------------------------------------------------------
    Total:                            1 524

shb_l.a: [8]
    ABIassert.o                          36
    close.o                              26
    exit.o                               20
    lseek.o                              76
    remove.o                             22
    ---------------------------------------------------------
    Total:                              180

    Gaps                                 44       13        3
    Linker created                                92   90 624
-------------------------------------------------------------
    Grand Total:                    398 656   16 345  152 297


*******************************************************************************
*** ENTRY LIST
***

Entry                      Address     Size  Type      Object
-----                      -------     ----  ----      ------
.bss$$Base              0x20016568            --   Gb  - Linker created -
.bss$$Limit             0x200251f0            --   Gb  - Linker created -
.data$$Base             0x20000000            --   Gb  - Linker created -
.data$$Limit            0x20000174            --   Gb  - Linker created -
.data_init$$Base        0x0006f418            --   Gb  - Linker created -
.data_init$$Limit       0x0006f505            --   Gb  - Linker created -
.iar.init_table$$Base   0x0006e870            --   Gb  - Linker created -
.iar.init_table$$Limit  0x0006e8cc            --   Gb  - Linker created -
.intvec$$Base           0x00000000            --   Gb  - Linker created -
.intvec$$Limit          0x00000400            --   Gb  - Linker created -
?main                   0x0006eb1d           Code  Gb  cmain.o [7]
AesCbcEncrypt           0x00056771     0x42  Code  Gb  aes.o [6]
AesEncrypt              0x00056261    0x4fe  Code  Lc  aes.o [6]
AesSetIV                0x000567b3     0x30  Code  Gb  aes.o [6]
AesSetKey               0x00056241     0x20  Code  Gb  aes.o [6]
AesSetKeyLocal          0x00055d11    0x530  Code  Lc  aes.o [6]
Airkiss_success         0x0003c079     0xa8  Code  Lc  smart_config.o [6]
ApListAdvCallback       0x0003f003     0x1a  Code  Gb  MICONotificationCenter.o [1]
ApListCallback          0x0003efe9     0x1a  Code  Gb  MICONotificationCenter.o [1]
Arc4Process             0x00045e67     0x44  Code  Gb  arc4.o [6]
Arc4SetKey              0x00045ded     0x4e  Code  Gb  arc4.o [6]
BonjourNotify_SYSWillPoerOffHandler
                        0x000620e1      0xe  Code  Gb  MICOBonjour.o [1]
BonjourNotify_WifiStatusHandler
                        0x000620d5      0xc  Code  Gb  MICOBonjour.o [1]
ByteReverseWord32       0x00055c89     0x18  Code  Lc  aes.o [6]
ByteReverseWords        0x00055ca1     0x20  Code  Lc  aes.o [6]
CFG_PRIO_BITS           0x0006f3e4      0x4  Data  Wk  wiced_rtos.o [6]
CLOCK_HAL_GetClkSrcMode
                        0x00068511      0x8  Code  Lc  fsl_mcg_hal.o [4]
CLOCK_HAL_GetDigitalControlledOscRangeMode
                        0x0006854b      0xa  Code  Lc  fsl_mcg_hal.o [4]
CLOCK_HAL_GetDivider    0x000687c5     0xaa  Code  Gb  fsl_sim_hal.o [4]
CLOCK_HAL_GetDmx32      0x00068541      0xa  Code  Lc  fsl_mcg_hal.o [4]
CLOCK_HAL_GetFastClkInternalRefDivider
                        0x0006856f      0xa  Code  Lc  fsl_mcg_hal.o [4]
CLOCK_HAL_GetFllClk     0x000685f7     0xaa  Code  Gb  fsl_mcg_hal.o [4]
CLOCK_HAL_GetFllExternalRefDivider
                        0x00068519      0xa  Code  Lc  fsl_mcg_hal.o [4]
CLOCK_HAL_GetFllRefClk  0x00068581     0x76  Code  Gb  fsl_mcg_hal.o [4]
CLOCK_HAL_GetInternalRefClk
                        0x000686f9     0x2e  Code  Gb  fsl_mcg_hal.o [4]
CLOCK_HAL_GetInternalRefClkSelMode
                        0x00068537      0xa  Code  Lc  fsl_mcg_hal.o [4]
CLOCK_HAL_GetInternalRefSelMode
                        0x00068523      0xa  Code  Lc  fsl_mcg_hal.o [4]
CLOCK_HAL_GetOscselMode
                        0x00068579      0x8  Code  Lc  fsl_mcg_hal.o [4]
CLOCK_HAL_GetOutClk     0x00068727     0x80  Code  Gb  fsl_mcg_hal.o [4]
CLOCK_HAL_GetPll0Clk    0x000686a1     0x58  Code  Gb  fsl_mcg_hal.o [4]
CLOCK_HAL_GetPllExternalRefDivider0
                        0x00068555      0x8  Code  Lc  fsl_mcg_hal.o [4]
CLOCK_HAL_GetPllSelMode
                        0x0006855d      0xa  Code  Lc  fsl_mcg_hal.o [4]
CLOCK_HAL_GetRange0Mode
                        0x0006852d      0xa  Code  Lc  fsl_mcg_hal.o [4]
CLOCK_HAL_GetVoltCtrlOscDivider0
                        0x00068567      0x8  Code  Lc  fsl_mcg_hal.o [4]
CLOCK_SYS_EnablePortClock
                        0x00056da1     0x10  Code  Lc  fsl_gpio_driver.o [4]
CLOCK_SYS_GetFreq       0x000675bf     0xf6  Code  Gb  fsl_clock_manager.o [4]
CLOCK_SYS_GetSysClkFreq
                        0x00067569     0x56  Code  Gb  fsl_clock_manager.o [4]
CLOCK_SYS_GetUartFreq   0x00067165     0x32  Code  Gb  fsl_clock_K64F12.o [4]
CRC8Table               0x0006daa0    0x100  Data  Lc  smart_config.o [6]
CSTACK$$Base            0x20000178            --   Gb  - Linker created -
CSTACK$$Limit           0x20000378            --   Gb  - Linker created -
CYASSL_MSG              0x0005d40f     0x14  Code  Gb  logging.o [6]
CloseEasylink2          0x0003eadf      0xa  Code  Gb  mxchipWNET.o [6]
CommandObj              0x2001655c      0xc  Data  Gb  flash_kinetis.o [1]
ConfigCreateReportJsonMessage
                        0x0005e4c1    0x80a  Code  Gb  MICOConfigDelegate.o [1]
ConfigELRecvAuthData    0x0005e4bb      0x4  Code  Gb  MICOConfigDelegate.o [1]
ConfigEasyLinkIsSuccess
                        0x0005e48b      0x4  Code  Gb  MICOConfigDelegate.o [1]
ConfigIncommingJsonMessage
                        0x0005ecd5    0x2d0  Code  Gb  MICOConfigDelegate.o [1]
ConfigIncommingJsonMessageUAP
                        0x000616c1    0x1d8  Code  Gb  EasyLinkSoftAP.o [1]
ConfigSoftApWillStart   0x0005e48f      0x2  Code  Gb  MICOConfigDelegate.o [1]
ConfigWillStart         0x0005e45f     0x10  Code  Gb  MICOConfigDelegate.o [1]
ConfigWillStop          0x0005e46f     0x1c  Code  Gb  MICOConfigDelegate.o [1]
Context                 0x2001d114      0x4  Data  Lc  LocalTcpServer.o [1]
Context                 0x2001d93c      0x4  Data  Lc  MICOConfigServer.o [1]
CreateHTTPMessage       0x00060cfd     0xba  Code  Gb  HTTPUtils.o [1]
CreateSimpleHTTPMessageNoCopy
                        0x00060c1d     0xc6  Code  Gb  HTTPUtils.o [1]
CreateSimpleHTTPOKMessage
                        0x00060b99     0x6a  Code  Gb  HTTPUtils.o [1]
DMA0_IRQHandler         0x0006e0c1      0x6  Code  Gb  fsl_edma_irq.o [1]
DMA10_IRQHandler        0x0006e0fd      0x6  Code  Gb  fsl_edma_irq.o [1]
DMA11_IRQHandler        0x0006e103      0x6  Code  Gb  fsl_edma_irq.o [1]
DMA12_IRQHandler        0x0006e109      0x6  Code  Gb  fsl_edma_irq.o [1]
DMA13_IRQHandler        0x0006e10f      0x6  Code  Gb  fsl_edma_irq.o [1]
DMA14_IRQHandler        0x0006e115      0x6  Code  Gb  fsl_edma_irq.o [1]
DMA15_IRQHandler        0x0006e11b      0x6  Code  Gb  fsl_edma_irq.o [1]
DMA1_IRQHandler         0x0006e0c7      0x6  Code  Gb  fsl_edma_irq.o [1]
DMA2_IRQHandler         0x0006e0cd      0x6  Code  Gb  fsl_edma_irq.o [1]
DMA3_IRQHandler         0x0006e0d3      0x6  Code  Gb  fsl_edma_irq.o [1]
DMA4_IRQHandler         0x0006e0d9      0x6  Code  Gb  fsl_edma_irq.o [1]
DMA5_IRQHandler         0x0006e0df      0x6  Code  Gb  fsl_edma_irq.o [1]
DMA6_IRQHandler         0x0006e0e5      0x6  Code  Gb  fsl_edma_irq.o [1]
DMA7_IRQHandler         0x0006e0eb      0x6  Code  Gb  fsl_edma_irq.o [1]
DMA8_IRQHandler         0x0006e0f1      0x6  Code  Gb  fsl_edma_irq.o [1]
DMA9_IRQHandler         0x0006e0f7      0x6  Code  Gb  fsl_edma_irq.o [1]
DMAMUX_HAL_Init         0x0006713d     0x28  Code  Gb  fsl_dmamux_hal.o [4]
DMA_Error_IRQHandler    0x0006e121      0x6  Code  Gb  fsl_edma_irq.o [1]
DSPI_DRV_IRQHandler     0x0006e13d     0x36  Code  Gb  fsl_dspi_shared_function.o [4]
DSPI_DRV_MasterCompleteTransfer
                        0x0006d373     0x42  Code  Lc  fsl_dspi_master_driver.o [4]
DSPI_DRV_MasterFillupTxFifo
                        0x0006d17f    0x1f4  Code  Gb  fsl_dspi_master_driver.o [4]
DSPI_DRV_MasterIRQHandler
                        0x0006d3b5     0xd4  Code  Gb  fsl_dspi_master_driver.o [4]
DSPI_DRV_SlaveIRQHandler
                        0x0006cd05    0x44a  Code  Gb  fsl_dspi_slave_driver.o [4]
DSPI_HAL_ClearStatusFlag
                        0x0006d16f      0xc  Code  Lc  fsl_dspi_master_driver.o [4]
DSPI_HAL_ClearStatusFlag
                        0x0006ccf1      0xc  Code  Lc  fsl_dspi_slave_driver.o [4]
DSPI_HAL_Disable        0x0006d159      0xc  Code  Lc  fsl_dspi_master_driver.o [4]
DSPI_HAL_GetIntMode     0x0006ccdd      0xa  Code  Lc  fsl_dspi_slave_driver.o [4]
DSPI_HAL_GetStatusFlag  0x0006d165      0xa  Code  Lc  fsl_dspi_master_driver.o [4]
DSPI_HAL_GetStatusFlag  0x0006cce7      0xa  Code  Lc  fsl_dspi_slave_driver.o [4]
DSPI_HAL_IsMaster       0x0006e129     0x14  Code  Lc  fsl_dspi_shared_function.o [4]
DSPI_HAL_ReadData       0x0006d17b      0x4  Code  Lc  fsl_dspi_master_driver.o [4]
DSPI_HAL_ReadData       0x0006ccfd      0x4  Code  Lc  fsl_dspi_slave_driver.o [4]
DSPI_HAL_SetIntMode     0x0006d4c1     0x1a  Code  Gb  fsl_dspi_hal.o [4]
DSPI_HAL_SetRxFifoDrainDmaIntMode
                        0x0006d4ab     0x16  Code  Gb  fsl_dspi_hal.o [4]
DSPI_HAL_SetTxFifoFillDmaIntMode
                        0x0006d495     0x16  Code  Gb  fsl_dspi_hal.o [4]
DSPI_HAL_WriteDataMastermode
                        0x0006d4db     0x32  Code  Gb  fsl_dspi_hal.o [4]
DSPI_HAL_WriteDataSlavemode
                        0x0006cd01      0x4  Code  Lc  fsl_dspi_slave_driver.o [4]
DataToHexStringWithColons
                        0x00057b5b     0x8c  Code  Gb  StringUtils.o [1]
DataToHexStringWithSpaces
                        0x00057ae7     0x52  Code  Gb  StringUtils.o [1]
DbgConsole_Init         0x0005dacf     0x56  Code  Gb  fsl_debug_console.o [1]
EDMA_DRV_ClaimChannel   0x00062acf     0xa6  Code  Lc  fsl_edma_driver.o [1]
EDMA_DRV_ClearIntStatus
                        0x00062b75     0x14  Code  Lc  fsl_edma_driver.o [1]
EDMA_DRV_ConfigLoopTransfer
                        0x00062c35    0x12c  Code  Gb  fsl_edma_driver.o [1]
EDMA_DRV_ErrorIRQHandler
                        0x00062bcb     0x6a  Code  Gb  fsl_edma_driver.o [1]
EDMA_DRV_IRQHandler     0x00062b89     0x42  Code  Gb  fsl_edma_driver.o [1]
EDMA_DRV_Init           0x0006296d     0xe4  Code  Gb  fsl_edma_driver.o [1]
EDMA_DRV_InstallCallback
                        0x00062a51      0x8  Code  Gb  fsl_edma_driver.o [1]
EDMA_DRV_RequestChannel
                        0x00062a59     0x76  Code  Gb  fsl_edma_driver.o [1]
EDMA_DRV_StartChannel   0x00062d67     0x14  Code  Gb  fsl_edma_driver.o [1]
EDMA_DRV_StopChannel    0x00062d7b     0x12  Code  Gb  fsl_edma_driver.o [1]
EDMA_HAL_HTCDClearReg   0x00066e47     0x8a  Code  Gb  fsl_edma_hal.o [4]
EDMA_HAL_Init           0x00066e0d     0x1e  Code  Gb  fsl_edma_hal.o [4]
EDMA_HAL_PushSTCDToHTCD
                        0x00066fd7     0xb6  Code  Gb  fsl_edma_hal.o [4]
EDMA_HAL_STCDSetAttribute
                        0x00066ed1     0x4c  Code  Gb  fsl_edma_hal.o [4]
EDMA_HAL_STCDSetBasicTransfer
                        0x0006708d     0x94  Code  Gb  fsl_edma_hal.o [4]
EDMA_HAL_STCDSetDestAddr
                        0x00066d2f     0x22  Code  Lc  fsl_edma_hal.o [4]
EDMA_HAL_STCDSetDestLastAdjust
                        0x00066d73     0x22  Code  Lc  fsl_edma_hal.o [4]
EDMA_HAL_STCDSetDestOffset
                        0x00066d51     0x22  Code  Lc  fsl_edma_hal.o [4]
EDMA_HAL_STCDSetDisableDmaRequestAfterTCDDoneCmd
                        0x00066dbd     0x28  Code  Lc  fsl_edma_hal.o [4]
EDMA_HAL_STCDSetIntCmd  0x00066de5     0x28  Code  Lc  fsl_edma_hal.o [4]
EDMA_HAL_STCDSetMajorCount
                        0x00066f8b     0x4c  Code  Gb  fsl_edma_hal.o [4]
EDMA_HAL_STCDSetNbytes  0x00066f1d     0x34  Code  Gb  fsl_edma_hal.o [4]
EDMA_HAL_STCDSetScatterGatherCmd
                        0x00066d95     0x28  Code  Lc  fsl_edma_hal.o [4]
EDMA_HAL_STCDSetScatterGatherLink
                        0x00066f51     0x3a  Code  Gb  fsl_edma_hal.o [4]
EDMA_HAL_STCDSetSrcAddr
                        0x00066cc9     0x22  Code  Lc  fsl_edma_hal.o [4]
EDMA_HAL_STCDSetSrcLastAdjust
                        0x00066d0d     0x22  Code  Lc  fsl_edma_hal.o [4]
EDMA_HAL_STCDSetSrcOffset
                        0x00066ceb     0x22  Code  Lc  fsl_edma_hal.o [4]
EDMA_HAL_SetDmaRequestCmd
                        0x00066e39      0xe  Code  Gb  fsl_edma_hal.o [4]
EDMA_HAL_SetErrorIntCmd
                        0x00066e2b      0xe  Code  Gb  fsl_edma_hal.o [4]
ENET_Error_IRQHandler   0x0005e129     0x20  Code  Gb  ethernetif.o [1]
ENET_Receive_IRQHandler
                        0x0005e109     0x20  Code  Gb  ethernetif.o [1]
ENET_Transmit_IRQHandler
                        0x0005e0db     0x20  Code  Gb  ethernetif.o [1]
EasyLinkNotify_DHCPCompleteHandler
                        0x00058595     0x72  Code  Gb  EasyLink.o [1]
EasyLinkNotify_EasyLinkCompleteHandler
                        0x00058669    0x17e  Code  Gb  EasyLink.o [1]
EasyLinkNotify_EasyLinkGetExtraDataHandler
                        0x000588ad    0x29c  Code  Gb  EasyLink.o [1]
EasyLinkNotify_SYSWillPowerOffHandler
                        0x00058ca5     0x1e  Code  Gb  EasyLink.o [1]
EasyLinkNotify_WiFIParaChangedHandler
                        0x0005849d     0x80  Code  Gb  EasyLink.o [1]
EasyLinkNotify_WifiStatusHandler
                        0x000583b9     0x8a  Code  Gb  EasyLink.o [1]
EasylinkFailed          0x2001656c      0x1  Data  Lc  EasyLink.o [1]
FLASH_EraseSector       0x00063691      0xe  Code  Gb  flash_kinetis.o [1]
FLASH_FlashCommandSequenceStart
                        0x0006e365     0x40  Code  Gb  flash_kinetisRamFunc.o [1]
FLASH_Initialization    0x00063645     0x36  Code  Gb  flash_kinetis.o [1]
FLASH_ProgramPhrase     0x0006367b     0x16  Code  Gb  flash_kinetis.o [1]
GPIO_DRV_ClearPinOutput
                        0x00056ed1     0x1a  Code  Gb  fsl_gpio_driver.o [4]
GPIO_DRV_InputPinInit   0x00056de7     0x78  Code  Gb  fsl_gpio_driver.o [4]
GPIO_DRV_OutputPinInit  0x00056e5f     0x58  Code  Gb  fsl_gpio_driver.o [4]
GPIO_DRV_ReadPinInput   0x00056f05     0x1a  Code  Gb  fsl_gpio_driver.o [4]
GPIO_DRV_SetPinOutput   0x00056eb7     0x1a  Code  Gb  fsl_gpio_driver.o [4]
GPIO_DRV_TogglePinOutput
                        0x00056eeb     0x1a  Code  Gb  fsl_gpio_driver.o [4]
GPIO_HAL_ClearPinOutput
                        0x00056d3d     0x20  Code  Lc  fsl_gpio_driver.o [4]
GPIO_HAL_ReadPinInput   0x00056d7d     0x24  Code  Lc  fsl_gpio_driver.o [4]
GPIO_HAL_SetPinDir      0x0005db65     0x38  Code  Gb  fsl_gpio_hal.o [4]
GPIO_HAL_SetPinOutput   0x00056d1d     0x20  Code  Lc  fsl_gpio_driver.o [4]
GPIO_HAL_TogglePinOutput
                        0x00056d5d     0x20  Code  Lc  fsl_gpio_driver.o [4]
GPIO_HAL_WritePinOutput
                        0x0005db9d     0x2e  Code  Gb  fsl_gpio_hal.o [4]
HEAP$$Base              0x20000378            --   Gb  - Linker created -
HEAP$$Limit             0x20016378            --   Gb  - Linker created -
HTTPGetHeaderField      0x0006095d    0x116  Code  Gb  HTTPUtils.o [1]
HTTPHeaderClear         0x00060adb     0xbe  Code  Gb  HTTPUtils.o [1]
HTTPHeaderCreate        0x00060ad1      0xa  Code  Gb  HTTPUtils.o [1]
HTTPHeaderMatchURL      0x00060aad     0x10  Code  Gb  HTTPUtils.o [1]
HTTPHeaderParse         0x00060601    0x2f8  Code  Gb  HTTPUtils.o [1]
HTTPScanFHeaderValue    0x00060a81     0x2c  Code  Gb  HTTPUtils.o [1]
HomeSwitch1Control      0x0004f301     0x10  Code  Gb  platform.o [1]
HomeWlanCommandProcess  0x0006c6d1     0xa0  Code  Gb  HomeProtocolParse.o [1]
INT_SYS_EnableIRQ       0x00056db1     0x36  Code  Lc  fsl_gpio_driver.o [4]
ISOwkyr                 0x000637f5     0xbc  Code  Lc  xgentime.o [3]
InStream_Read           0x0006ddcf     0x22  Code  Lc  packbits_init.o [7]
LoadInt                 0x00049949     0x6e  Code  Lc  xprintffull.o [3]
MICOAddMenuCellToSector
                        0x00064229     0x68  Code  Gb  MICOConfigMenu.o [1]
MICOAddNotification     0x0003f1a5     0x7e  Code  Gb  MICONotificationCenter.o [1]
MICOAddNumberCellToSector
                        0x000640f9     0x8c  Code  Gb  MICOConfigMenu.o [1]
MICOAddSector           0x00063ff9     0x6e  Code  Gb  MICOConfigMenu.o [1]
MICOAddStringCellToSector
                        0x00064067     0x92  Code  Gb  MICOConfigMenu.o [1]
MICOAddSwitchCellToSector
                        0x0006418d     0x86  Code  Gb  MICOConfigMenu.o [1]
MICOAddTopMenu          0x00064297    0x138  Code  Gb  MICOConfigMenu.o [1]
MICOInitNotificationCenter
                        0x0003f167     0x3e  Code  Gb  MICONotificationCenter.o [1]
MICOReadConfiguration   0x00057109     0xa8  Code  Gb  MICOParaStorage.o [1]
MICORegisterSystemMonitor
                        0x00057495     0x42  Code  Gb  MICOSystemMonitor.o [1]
MICORemoveNotification  0x0003f223     0x9e  Code  Gb  MICONotificationCenter.o [1]
MICORestoreDefault      0x0005701d     0xec  Code  Gb  MICOParaStorage.o [1]
MICOStartApplication    0x0005b257    0x206  Code  Gb  MICOAppEntrance.o [1]
MICOStartBonjourService
                        0x000620ef    0x252  Code  Gb  MICOBonjour.o [1]
MICOStartConfigServer   0x00059df5     0x20  Code  Gb  MICOConfigServer.o [1]
MICOStartNTPClient      0x0005b06b     0x24  Code  Gb  MICONTPClient.o [1]
MICOStartSystemMonitor  0x000573f9     0x20  Code  Gb  MICOSystemMonitor.o [1]
MICOUpdateConfiguration
                        0x000571c5     0xda  Code  Gb  MICOParaStorage.o [1]
MICOUpdateSystemMonitor
                        0x000574e9     0x1c  Code  Gb  MICOSystemMonitor.o [1]
MakeByte                0x00045e3b     0x2c  Code  Lc  arc4.o [6]
MicoFlashErase          0x0005dbf3     0x1c  Code  Gb  MicoDriverFlash.o [1]
MicoFlashFinalize       0x0005dc79      0x4  Code  Gb  MicoDriverFlash.o [1]
MicoFlashInitialize     0x0005dbd5     0x1e  Code  Gb  MicoDriverFlash.o [1]
MicoFlashRead           0x0005dc37     0x34  Code  Gb  MicoDriverFlash.o [1]
MicoFlashWrite          0x0005dc0f     0x28  Code  Gb  MicoDriverFlash.o [1]
MicoGpioEnableIRQ       0x00056b05     0x2a  Code  Gb  MicoDriverGpio.o [1]
MicoGpioInitialize      0x000569a9     0xdc  Code  Gb  MicoDriverGpio.o [1]
MicoGpioOutputHigh      0x00056a85     0x1c  Code  Gb  MicoDriverGpio.o [1]
MicoGpioOutputLow       0x00056aa1     0x1c  Code  Gb  MicoDriverGpio.o [1]
MicoGpioOutputTrigger   0x00056ac1     0x1c  Code  Gb  MicoDriverGpio.o [1]
MicoMcuPowerSaveConfig  0x0004f12b      0x2  Code  Gb  ksdk_platform.o [1]
MicoRfLed               0x0004f2d7     0x10  Code  Gb  platform.o [1]
MicoRtcGetTime          0x0005799d      0x2  Code  Gb  MicoDriverRtc.o [1]
MicoRtcSetTime          0x0005799f      0x2  Code  Gb  MicoDriverRtc.o [1]
MicoShouldEnterMFGMode  0x0004f2e7     0x1a  Code  Gb  platform.o [1]
MicoSysLed              0x0004f2c5     0x12  Code  Gb  platform.o [1]
MicoSystemReboot        0x0004f105     0x18  Code  Gb  ksdk_platform.o [1]
MicoSystemStandBy       0x0004f129      0x2  Code  Gb  ksdk_platform.o [1]
MicoUartGetLengthInBuffer
                        0x00062791      0xc  Code  Gb  MicoDriverUart.o [1]
MicoUartInitialize      0x0006255d      0x2  Code  Gb  MicoDriverUart.o [1]
MicoUartRecv            0x0006274f     0x42  Code  Gb  MicoDriverUart.o [1]
MicoUartSend            0x00062629     0x4e  Code  Gb  MicoDriverUart.o [1]
MicoWdgInitialize       0x0005dd27      0x4  Code  Gb  MicoDriverWdg.o [1]
MicoWdgReload           0x0005dd2b      0x2  Code  Gb  MicoDriverWdg.o [1]
NTPClient_thread        0x0005ad11    0x35a  Code  Gb  MICONTPClient.o [1]
NVIC_EnableIRQ          0x00056b91     0x16  Code  Lc  fsl_gpio_driver.o [4]
NetCallback             0x0003f05f     0x1a  Code  Gb  MICONotificationCenter.o [1]
Notify_list             0x2001d9dc     0x50  Data  Gb  MICONotificationCenter.o [1]
OSA_Init                0x00057019      0x4  Code  Gb  fsl_os_abstraction_free_rtos.o [4]
OSA_SemaCreate          0x00056f65     0x36  Code  Gb  fsl_os_abstraction_free_rtos.o [4]
OSA_SemaPost            0x00056fe3     0x2e  Code  Gb  fsl_os_abstraction_free_rtos.o [4]
OSA_SemaphorePostFromISR
                        0x00056fb7     0x2c  Code  Lc  fsl_os_abstraction_free_rtos.o [4]
OSA_SemaphorePostFromTask
                        0x00056f9b     0x1c  Code  Lc  fsl_os_abstraction_free_rtos.o [4]
OpenEasylink2_withdata  0x0003eae9     0x22  Code  Gb  mxchipWNET.o [6]
PORTA_IRQHandler        0x0005c8a3      0x2  Code  Gb  k64_gpio.o [1]
PORTB_IRQHandler        0x0005c8a5     0x5a  Code  Gb  k64_gpio.o [1]
PORTC_IRQHandler        0x0005c8ff      0x2  Code  Gb  k64_gpio.o [1]
PORTD_IRQHandler        0x0005c901      0x2  Code  Gb  k64_gpio.o [1]
PORTE_IRQHandler        0x0005c903      0x2  Code  Gb  k64_gpio.o [1]
PORT_HAL_SetDigitalFilterCmd
                        0x00056cbb     0x2e  Code  Lc  fsl_gpio_driver.o [4]
PORT_HAL_SetDriveStrengthMode
                        0x0005d5e1     0x2c  Code  Lc  pin_mux.o [1]
PORT_HAL_SetDriveStrengthMode
                        0x00056c8d     0x2e  Code  Lc  fsl_gpio_driver.o [4]
PORT_HAL_SetMuxMode     0x0005d60d     0x34  Code  Lc  pin_mux.o [1]
PORT_HAL_SetMuxMode     0x0004f12d     0x34  Code  Lc  platform.o [1]
PORT_HAL_SetOpenDrainCmd
                        0x0005d5b5     0x2c  Code  Lc  pin_mux.o [1]
PORT_HAL_SetOpenDrainCmd
                        0x00056c5f     0x2e  Code  Lc  fsl_gpio_driver.o [4]
PORT_HAL_SetPassiveFilterCmd
                        0x0005d589     0x2c  Code  Lc  pin_mux.o [1]
PORT_HAL_SetPassiveFilterCmd
                        0x00056c31     0x2e  Code  Lc  fsl_gpio_driver.o [4]
PORT_HAL_SetPinIntMode  0x00056ce9     0x34  Code  Lc  fsl_gpio_driver.o [4]
PORT_HAL_SetPullCmd     0x0005d531     0x2c  Code  Lc  pin_mux.o [1]
PORT_HAL_SetPullCmd     0x00056bd5     0x2e  Code  Lc  fsl_gpio_driver.o [4]
PORT_HAL_SetPullMode    0x00056ba7     0x2e  Code  Lc  fsl_gpio_driver.o [4]
PORT_HAL_SetSlewRateMode
                        0x0005d55d     0x2c  Code  Lc  pin_mux.o [1]
PORT_HAL_SetSlewRateMode
                        0x00056c03     0x2e  Code  Lc  fsl_gpio_driver.o [4]
PlatformEasyLinkButtonClickedCallback
                        0x0004f4a1     0x56  Code  Gb  MICOEntrance.o [1]
PlatformEasyLinkButtonLongPressedCallback
                        0x0004f4f7     0x3a  Code  Gb  MICOEntrance.o [1]
PrintHTTPHeader         0x00060dd1      0x2  Code  Gb  HTTPUtils.o [1]
RTC_IRQHandler          0x0006f2e1      0xc  Code  Gb  fsl_rtc_irq.o [1]
Region$$Table$$Base     0x0006e870            --   Gb  - Linker created -
Region$$Table$$Limit    0x0006e8cc            --   Gb  - Linker created -
RptConfigmodeRslt       0x0003f079     0x1a  Code  Gb  MICONotificationCenter.o [1]
SHT$$INIT_ARRAY$$Base   0x0006f418            --   Gb  - Linker created -
SHT$$INIT_ARRAY$$Limit  0x0006f418            --   Gb  - Linker created -
SHT$$PREINIT_ARRAY$$Base
                        0x0006f414            --   Gb  - Linker created -
SHT$$PREINIT_ARRAY$$Limit
                        0x0006f418            --   Gb  - Linker created -
SIM_HAL_EnableDmaClock  0x0005d431     0x10  Code  Gb  fsl_sim_hal_K64F12.o [4]
SIM_HAL_EnableDmamuxClock
                        0x0005d441     0x10  Code  Gb  fsl_sim_hal_K64F12.o [4]
SIM_HAL_EnablePortClock
                        0x0005d451     0x54  Code  Gb  fsl_sim_hal_K64F12.o [4]
SIM_HAL_EnableUartClock
                        0x0005d4a5     0x58  Code  Gb  fsl_sim_hal_K64F12.o [4]
SPI0_IRQHandler         0x0006ee3d      0x6  Code  Gb  fsl_dspi_irq.o [1]
SPI1_IRQHandler         0x0006ee43      0x6  Code  Gb  fsl_dspi_irq.o [1]
SPI2_IRQHandler         0x0006ee49      0x6  Code  Gb  fsl_dspi_irq.o [1]
SetTimer                0x00041cfd     0x5a  Code  Gb  wifimgr.o [6]
SetTimer_uniq           0x00041d57     0x32  Code  Gb  wifimgr.o [6]
SocketClose             0x0005f52d      0xe  Code  Gb  SocketUtils.o [1]
SocketReadHTTPBody      0x00060021    0x57c  Code  Gb  HTTPUtils.o [1]
SocketReadHTTPHeader    0x0005fcc9    0x2ec  Code  Gb  HTTPUtils.o [1]
SocketSend              0x0005f381    0x1ac  Code  Gb  SocketUtils.o [1]
StartAdvNetwork         0x00040f0d    0x1b6  Code  Gb  wifimgr.o [6]
StartNetwork            0x000410c3    0x14c  Code  Gb  wifimgr.o [6]
SystemInit              0x0006d96d    0x104  Code  Gb  system_MK64F12.o [1]
Td                      0x0006aba4   0x1400  Data  Lc  aes.o [6]
Te                      0x000697a4   0x1400  Data  Lc  aes.o [6]
UART0_RX_TX_IRQHandler  0x0006e829      0x6  Code  Gb  fsl_uart_irq.o [1]
UART1_RX_TX_IRQHandler  0x0006e82f      0x6  Code  Gb  fsl_uart_irq.o [1]
UART2_RX_TX_IRQHandler  0x0006e835      0x6  Code  Gb  fsl_uart_irq.o [1]
UART3_RX_TX_IRQHandler  0x0006e83b      0x6  Code  Gb  fsl_uart_irq.o [1]
UART4_RX_TX_IRQHandler  0x0006e841      0x6  Code  Gb  fsl_uart_irq.o [1]
UART5_RX_TX_IRQHandler  0x0006e847      0x6  Code  Gb  fsl_uart_irq.o [1]
UART_DRV_AbortReceivingData
                        0x00063387     0x34  Code  Gb  fsl_uart_driver.o [1]
UART_DRV_CompleteReceiveData
                        0x00062677     0x4c  Code  Gb  MicoDriverUart.o [1]
UART_DRV_CompleteSendData
                        0x000625ef     0x3a  Code  Gb  MicoDriverUart.o [1]
UART_DRV_IRQHandler     0x000633bb     0xb8  Code  Gb  fsl_uart_driver.o [1]
UART_DRV_Init           0x0006316d    0x148  Code  Gb  fsl_uart_driver.o [1]
UART_DRV_ReceiveDataBlocking
                        0x000626c3     0x8c  Code  Gb  MicoDriverUart.o [1]
UART_DRV_ReceivePollBlocking
                        0x0005da93     0x36  Code  Lc  fsl_debug_console.o [1]
UART_DRV_SendData       0x00063335     0x52  Code  Gb  fsl_uart_driver.o [1]
UART_DRV_SendPollBlocking
                        0x0005da59     0x3a  Code  Lc  fsl_debug_console.o [1]
UART_DRV_StartSendData  0x000632b5     0x7a  Code  Lc  fsl_uart_driver.o [1]
UART_HAL_FlushRxFifo    0x00063113      0xe  Code  Gb  fsl_uart_hal.o [1]
UART_HAL_FlushTxFifo    0x00063103     0x10  Code  Gb  fsl_uart_hal.o [1]
UART_HAL_Getchar        0x000630cf      0x8  Code  Gb  fsl_uart_hal.o [1]
UART_HAL_Init           0x00063041     0x2e  Code  Gb  fsl_uart_hal.o [1]
UART_HAL_Putchar        0x000630c7      0x2  Code  Gb  fsl_uart_hal.o [1]
UART_HAL_SetBaudRate    0x0006306f     0x46  Code  Gb  fsl_uart_hal.o [1]
UART_HAL_SetParityMode  0x000630b5     0x12  Code  Gb  fsl_uart_hal.o [1]
UART_HAL_SetRxFifoCmd   0x000630ed     0x16  Code  Gb  fsl_uart_hal.o [1]
UART_HAL_SetRxFifoWatermark
                        0x0006313b     0x12  Code  Gb  fsl_uart_hal.o [1]
UART_HAL_SetTxFifoCmd   0x000630d7     0x16  Code  Gb  fsl_uart_hal.o [1]
UART_HAL_SetTxFifoWatermark
                        0x00063129     0x12  Code  Gb  fsl_uart_hal.o [1]
URLParseComponents      0x00065c21    0x16c  Code  Gb  URLUtils.o [1]
UsageFault_Handler      0x0005697d      0x6  Code  Gb  hardware_init.o [1]
VSNScanF                0x00057c63    0x5cc  Code  Gb  StringUtils.o [1]
WifiStatusHandler       0x0003f01d     0x1a  Code  Gb  MICONotificationCenter.o [1]
XorWords                0x00055cc1     0x1e  Code  Lc  aes.o [6]
_Asctime_tbuf           0x2001652c     0x1c  Data  Lc  asctime.o [3]
_CStrftime              0x0005e2e1     0xfc  Code  Gb  xstrftim.o [3]
_Close_all              0x00068d09     0x58  Code  Gb  xcloseall.o [3]
_ConnectToAP            0x0004f8df     0xe8  Code  Gb  MICOEntrance.o [1]
_Context                0x2001da2c      0x4  Data  Lc  MICONotificationCenter.o [1]
_EasyLinkNotify_DHCPCompleteHandler
                        0x00061215     0x72  Code  Lc  EasyLinkSoftAP.o [1]
_EasyLinkNotify_SYSWillPoerOffHandler
                        0x00061145     0x10  Code  Lc  EasyLinkSoftAP.o [1]
_EasyLinkNotify_WiFIParaChangedHandler
                        0x00061155     0xc0  Code  Lc  EasyLinkSoftAP.o [1]
_EasyLinkNotify_WifiStatusHandler
                        0x000610a9     0x9c  Code  Lc  EasyLinkSoftAP.o [1]
_EncodingSb_Mbtowc      0x0005d26f     0x30  Code  Gb  xencoding_sb.o [3]
_EncodingSb_Wctomb      0x0005d255     0x1a  Code  Gb  xencoding_sb.o [3]
_FTCRespondInComingMessage
                        0x00059725    0x260  Code  Lc  EasyLink.o [1]
_Files                  0x20000154     0x20  Data  Gb  xfiles.o [3]
_Fofree                 0x00069569     0x78  Code  Gb  xfofind.o [3]
_Fspos                  0x0006dca1     0xd6  Code  Gb  xfspos.o [3]
_Fwprep                 0x0006de9f     0xb6  Code  Gb  xfwprep.o [3]
_GenldFull              0x0004a1d3    0x24e  Code  Lc  xprintffull.o [3]
_Gentime                0x000639c1    0x59a  Code  Gb  xgentime.o [3]
_GetN                   0x000676c9     0x22  Code  Lc  xscanffull.o [3]
_Get_LocaleC_Tinfo      0x0005e1af      0x4  Code  Gb  xlocale_c.o [3]
_Getdst                 0x000683d3    0x13c  Code  Gb  xgetdst.o [3]
_GetfldFull             0x000678ed    0x102  Code  Lc  xscanffull.o [3]
_GetfloatFull           0x00067e97    0x4da  Code  Lc  xscanffull.o [3]
_GetintFull             0x00067ca5    0x1ec  Code  Lc  xscanffull.o [3]
_GetstrFull             0x000679f1    0x2ae  Code  Lc  xscanffull.o [3]
_Gettime                0x00066a77     0x42  Code  Gb  xgettime.o [3]
_IsdstStr               0x20016490      0x4  Data  Gb  setlocale.o [3]
_Isdst_olddst           0x20016554      0x4  Data  Lc  xisdst.o [3]
_Isdst_rules            0x20016558      0x4  Data  Gb  xisdstData.o [3]
_LdtobFull              0x00049dd1    0x3fc  Code  Lc  xprintffull.o [3]
_Led_EL_timer           0x2001d930      0xc  Data  Lc  MICOConfigDelegate.o [1]
_LitobFull              0x00049cc9    0x106  Code  Lc  xprintffull.o [3]
_LocalConfigRespondInComingMessage
                        0x0005a315    0x43c  Code  Lc  MICOConfigServer.o [1]
_LocaleC_Tinfo          0x200250ec     0x54  Data  Lc  xlocale_c.o [3]
_LocaleC_isalpha        0x00063fa3     0x16  Code  Gb  xlocale_c.o [3]
_LocaleC_isspace        0x00063fb9     0x14  Code  Gb  xlocale_c.o [3]
_LocaleC_tolower        0x00063f97      0xc  Code  Gb  xlocale_c.o [3]
_LocaleEncoding         0x0005d239      0xe  Code  Gb  setlocale.o [3]
_LocaleForCat           0x0005d227     0x12  Code  Gb  setlocale.o [3]
_LocaleReturnString     0x200164b0     0x50  Data  Lc  setlocale.o [3]
_Locale_Profile         0x20016494     0x1c  Data  Gb  setlocale.o [3]
_Locale_aeabi_lconv     0x20016454     0x38  Data  Gb  localeconv.o [3]
_Locale_lconv           0x20016404     0x50  Data  Gb  localeconv.o [3]
_Localtime_oldzone      0x20016548      0x4  Data  Lc  localtim.o [3]
_Localtime_tzoff        0x2001654c      0x4  Data  Lc  localtim.o [3]
_Mbtowc                 0x00053825     0x20  Code  Gb  xmbtowc.o [3]
_Nnl                    0x0006dd77      0xc  Code  Gb  xfgpos.o [3]
_PrintfFull             0x00049315    0x61e  Code  Gb  xprintffull.o [3]
_Prout                  0x0006ec75     0x16  Code  Gb  xprout.o [3]
_PutcharsFull           0x0004a421     0x2e  Code  Lc  xprintffull.o [3]
_PutstrFull             0x000499b7    0x30c  Code  Lc  xprintffull.o [3]
_Rand_idx               0x20016380      0x4  Data  Lc  rand.o [3]
_Rand_rv                0x20016384     0x80  Data  Lc  rand.o [3]
_Randinit               0x20016378      0x1  Data  Gb  rand.o [3]
_Randseed               0x2001637c      0x4  Data  Gb  rand.o [3]
_SNProut                0x0003e82f     0x1a  Code  Gb  xsnprout.o [3]
_SProut                 0x0004234b      0xa  Code  Gb  xsprout.o [3]
_SScin                  0x0003e7af     0x1e  Code  Gb  xsscin.o [3]
_ScanfFull              0x00067705    0x1e2  Code  Gb  xscanffull.o [3]
_Stoflt                 0x00068e85    0x1b8  Code  Gb  xstoflt.o [3]
_Stopfx                 0x00068d61    0x124  Code  Gb  xstopfx.o [3]
_Stoxflt                0x00069281    0x1e2  Code  Gb  xstoxflt.o [3]
_Ttotm_ts               0x20016500     0x2c  Data  Lc  xttotm.o [3]
_Tzoff                  0x00061ea9     0x94  Code  Gb  localtim.o [3]
_TzoneStr               0x2001648c      0x4  Data  Gb  setlocale.o [3]
_UngetN                 0x000676eb     0x1a  Code  Lc  xscanffull.o [3]
_Wctomb                 0x000538bf     0x1a  Code  Gb  xwctomb.o [3]
__VECTOR_RAM {Abs}      0x1fff0000            --   Gb  command line/config [2]
__VECTOR_TABLE {Abs}    0x00000000            --   Gb  command line/config [2]
__Vectors               0x00000000            --   Gb  startup_MK64F12.o [1]
__Vectors_End           0x00000400           Data  Gb  startup_MK64F12.o [1]
__Vectors_Size {Abs}    0x00000400            --   Gb  startup_MK64F12.o [1]
__aeabi_assert          0x00056985     0x24  Code  Gb  ABIassert.o [8]
__aeabi_cdcmpeq         0x00065a49           Code  Gb  DblCmpEq.o [5]
__aeabi_cdcmple         0x00053a09           Code  Gb  DblCmpLe.o [5]
__aeabi_cdrcmple        0x00053a39           Code  Gb  DblCmpGe.o [5]
__aeabi_d2f             0x00068c79           Code  Gb  DblToFlt.o [5]
__aeabi_d2iz            0x00053b81           Code  Gb  DblToI32.o [5]
__aeabi_d2uiz           0x00053bad           Code  Gb  DblToI32.o [5]
__aeabi_dadd            0x0005d2b9           Code  Gb  DblAdd.o [5]
__aeabi_ddiv            0x00053f2d           Code  Gb  DblDiv.o [5]
__aeabi_dmul            0x00053d89           Code  Gb  DblMul.o [5]
__aeabi_dsub            0x00053c09           Code  Gb  DblSub.o [5]
__aeabi_errno_addr      0x0006728d      0x6  Code  Gb  errno.o [3]
__aeabi_i2d             0x00053bd9           Code  Gb  I32ToDbl.o [5]
__aeabi_ldiv0           0x0005d2b5           Code  Gb  I64DivZer.o [7]
__aeabi_memclr          0x00067299           Code  Gb  ABImemclr.o [7]
__aeabi_memclr4         0x00050ccd           Code  Gb  ABImemclr4.o [7]
__aeabi_memset          0x0003e749           Code  Gb  ABImemset.o [7]
__aeabi_memset4         0x0005b679           Code  Gb  ABImemset48.o [7]
__aeabi_memset8         0x0005b679           Code  Gb  ABImemset48.o [7]
__aeabi_ui2d            0x00053bed           Code  Gb  I32ToDbl.o [5]
__aeabi_uldivmod        0x000538d9           Code  Gb  I64DivMod.o [7]
__call_ctors            0x0006e9ed     0x18  Code  Gb  cppinit.o [3]
__cexit_clearlocks      0x0006839f           Code  Gb  cexit.o [7]
__cexit_closeall        0x0006839b           Code  Gb  cexit.o [7]
__close                 0x00069695     0x1a  Code  Gb  close.o [8]
__cmain                 0x0006eb1d           Code  Gb  cmain.o [7]
__cstart_clearlocks     0x0006f418           Data  Gb  cstart_clearlocks.o [7]
__cstart_closeall       0x0006f418           Data  Gb  cstart_closeall.o [7]
__data_GetMemChunk      0x00050cf5     0x2c  Code  Gb  xgetmemchunk.o [3]
__exit                  0x0005b665     0x14  Code  Gb  exit.o [8]
__getzone               0x00066a6d      0x6  Code  Gb  getzone.o [3]
__iar_Daysto32          0x00066b41     0x3a  Code  Gb  xttotm.o [3]
__iar_Dnorm             0x000539c7     0x42  Code  Gb  xdnorm.o [5]
__iar_Dscale            0x00053a69    0x118  Code  Gb  xdscale.o [5]
__iar_Dtentox           0x000690dd    0x13e  Code  Gb  xdtento.o [5]
__iar_Dunscale          0x00069513     0x56  Code  Gb  xdunscal.o [5]
__iar_Errno             0x20016550      0x4  Data  Gb  errno.o [3]
__iar_ForwardingLockFunctions {Abs}
                        0x00000000            --   Gb  xsyslock.o [3]
__iar_Isdst32           0x00067435    0x134  Code  Gb  xisdst.o [3]
__iar_Locale_lconv_init
                        0x00054185     0x3a  Code  Gb  localeconv.o [3]
__iar_Lockfilelock_mtx  0x0005b797     0x28  Code  Gb  xsyslock_mtx.o [3]
__iar_Locksyslock_Malloc
                        0x00050cd3      0x4  Code  Gb  xsyslock.o [3]
__iar_Locksyslock_Stream
                        0x00050cdd      0x6  Code  Gb  xsyslock.o [3]
__iar_Locksyslock_mtx   0x0005b7d5     0x26  Code  Gb  xsyslock_mtx.o [3]
__iar_Mbcurmax          0x000538b5      0xa  Code  Gb  xmbcurmax.o [3]
__iar_Memchr            0x0005385d           Code  Gb  memchr.o [7]
__iar_Memset            0x0003e749           Code  Gb  ABImemset.o [7]
__iar_Memset4_word      0x0005b681           Code  Gb  ABImemset48.o [7]
__iar_Memset8_word      0x0005b681           Code  Gb  ABImemset48.o [7]
__iar_Memset_word       0x0003e751           Code  Gb  ABImemset.o [7]
__iar_Stderr            0x20000114     0x40  Data  Gb  xfiles.o [3]
__iar_Stdin             0x20000094     0x40  Data  Gb  xfiles.o [3]
__iar_Stdout            0x200000d4     0x40  Data  Gb  xfiles.o [3]
__iar_Stold             0x00068c75      0x4  Code  Gb  xstold.o [5]
__iar_Stoldx            0x00068b11    0x14e  Code  Gb  xstold.o [5]
__iar_Stoll             0x0006895d      0x4  Code  Gb  xstoll.o [3]
__iar_Stollx            0x000688bd     0xa0  Code  Gb  xstoll.o [3]
__iar_Stolx             0x00066ab9     0x88  Code  Gb  xstol.o [3]
__iar_Stoull            0x00068abd      0x4  Code  Gb  xstoull.o [3]
__iar_Stoullx           0x00068961    0x156  Code  Gb  xstoull.o [3]
__iar_Stoulx            0x000672a1    0x13e  Code  Gb  xstoul.o [3]
__iar_Strchr            0x00053845           Code  Gb  strchr.o [7]
__iar_Strrchr           0x00056b79     0x18  Code  Gb  strrchr.o [3]
__iar_Strstr            0x00063fcd     0x2c  Code  Gb  strstr.o [3]
__iar_Ttotm32           0x00066b7b    0x112  Code  Gb  xttotm.o [3]
__iar_TzoneStr_init     0x0005d201     0x26  Code  Gb  setlocale.o [3]
__iar_Unlockfilelock_mtx
                        0x0005b7bf     0x16  Code  Gb  xsyslock_mtx.o [3]
__iar_Unlocksyslock_Malloc
                        0x00050ce3      0x4  Code  Gb  xsyslock.o [3]
__iar_Unlocksyslock_Stream
                        0x00050ced      0x6  Code  Gb  xsyslock.o [3]
__iar_Unlocksyslock_mtx
                        0x0005b7fb     0x12  Code  Gb  xsyslock_mtx.o [3]
__iar_Wctob             0x0006887d     0x36  Code  Gb  xwctob.o [3]
__iar_clearlocks        0x0005b6b5     0x74  Code  Gb  xsyslock_mtx.o [3]
__iar_cstart_call_ctors
                        0x0006e9cd     0x20  Code  Gb  cmain_call_ctors.o [7]
__iar_d2uiz             0x00053bb9           Code  Gb  DblToI32.o [5]
__iar_dadd              0x0005d2cd           Code  Gb  DblAdd.o [5]
__iar_data_init3        0x0006e74d     0x28  Code  Gb  data_init.o [7]
__iar_dlcalloc          0x00045959     0x48  Code  Gb  dlmalloc.o [6]
__iar_dlfree            0x000452df    0x676  Code  Gb  dlmalloc.o [6]
__iar_dlib_perthread_access
                        0x000519f1      0x2  Code  Gb  xtls.o [3]
__iar_dlmallinfo        0x00045ddd      0xa  Code  Gb  dlmalloc.o [6]
__iar_dlmalloc          0x00044f7f    0x360  Code  Gb  dlmalloc.o [6]
__iar_dlrealloc         0x00045d49     0x94  Code  Gb  dlmalloc.o [6]
__iar_dsub              0x00053c1d           Code  Gb  DblSub.o [5]
__iar_dsubStart         0x00053c2f           Code  Gb  DblSub.o [5]
__iar_file_Mtxdst       0x0006289b      0x2  Code  Gb  iar_mutex.o [6]
__iar_file_Mtxinit      0x00062899      0x2  Code  Gb  iar_mutex.o [6]
__iar_file_Mtxlock      0x0006289d      0x2  Code  Gb  iar_mutex.o [6]
__iar_file_Mtxunlock    0x0006289f      0x2  Code  Gb  iar_mutex.o [6]
__iar_init_vfp          0x0006e84d           Code  Gb  fpinit_M.o [5]
__iar_packbits_init3    0x0006ddf1     0xae  Code  Gb  packbits_init.o [7]
__iar_program_start     0x0006f2ed           Code  Gb  cstartup_M.o [7]
__iar_sh_Discard        0x000696c5     0x44  Code  Gb  XShHandles.o [3]
__iar_sh_Move           0x0006970f     0x4c  Code  Gb  XShHandles.o [3]
__iar_sh_Pos            0x0006975b     0x44  Code  Gb  XShHandles.o [3]
__iar_strcmp            0x00049025           Code  Gb  strcmp_unaligned.o [7]
__iar_system_Mtxdst     0x00062887      0x2  Code  Gb  iar_mutex.o [6]
__iar_system_Mtxinit    0x00062885      0x2  Code  Gb  iar_mutex.o [6]
__iar_system_Mtxlock    0x00062889      0x8  Code  Gb  iar_mutex.o [6]
__iar_system_Mtxunlock  0x00062891      0x8  Code  Gb  iar_mutex.o [6]
__iar_ui2d              0x00053bf1           Code  Gb  I32ToDbl.o [5]
__iar_unaligned___aeabi_memcpy
                        0x0003be3d           Code  Gb  ABImemcpy_unaligned.o [7]
__iar_unaligned___aeabi_memcpy4
                        0x0003be5d           Code  Gb  ABImemcpy_unaligned.o [7]
__iar_unaligned___aeabi_memcpy8
                        0x0003be5d           Code  Gb  ABImemcpy_unaligned.o [7]
__iar_unaligned___aeabi_memmove
                        0x0005437d           Code  Gb  ABImemmove_unaligned.o [7]
__iar_unaligned___aeabi_memmove4
                        0x0005437d           Code  Gb  ABImemmove_unaligned.o [7]
__iar_unaligned___aeabi_memmove8
                        0x0005437d           Code  Gb  ABImemmove_unaligned.o [7]
__iar_unaligned_memcmp  0x0003e7cd           Code  Gb  memcmp_unaligned.o [7]
__iar_unaligned_strcmp  0x00049025           Code  Gb  strcmp_unaligned.o [7]
__iar_unaligned_strcpy  0x00049069           Code  Gb  strcpy_unaligned.o [7]
__iar_unaligned_strncpy
                        0x000422a9           Code  Gb  strncpy_unaligned.o [7]
__iar_zero_init3        0x0003beb3     0x22  Code  Gb  zero_init3.o [7]
__localtime32           0x00061f45     0x1a  Code  Gb  localtim.o [3]
__low_level_init        0x0006eb01     0x1c  Code  Gb  crt0_IAR.o [1]
__lseek                 0x0006dd83     0x4c  Code  Gb  lseek.o [8]
__sti__routine          0x0005e161     0x4e  Code  Lc  xlocale_c.o [3]
__strdup                0x00065d8d     0x2e  Code  Lc  MDNSUtils.o [1]
__strdup                0x00057a71     0x2e  Code  Gb  StringUtils.o [1]
__strdup_trans_dot      0x00057a9f     0x48  Code  Gb  StringUtils.o [1]
__vector_table          0x00000000           Data  Gb  startup_MK64F12.o [1]
__vector_table_0x1c     0x0000001c           Data  Gb  startup_MK64F12.o [1]
__write                 0x0005db25     0x28  Code  Wk  fsl_debug_console.o [1]
_bonjourStarted         0x20016580      0x4  Data  Lc  EasyLinkSoftAP.o [1]
_bonjourStarted         0x2001d92c      0x4  Data  Lc  MICOBonjour.o [1]
_bonjour_announce       0x20000024      0x4  Data  Lc  MDNSUtils.o [1]
_bonjour_announce_time  0x20000020      0x4  Data  Lc  MDNSUtils.o [1]
_bonjour_thread         0x00066735    0x1b2  Code  Lc  MDNSUtils.o [1]
_button_EL_Timeout_handler
                        0x0004f1a5      0xa  Code  Lc  platform.o [1]
_button_EL_irq_handler  0x0004f161     0x44  Code  Lc  platform.o [1]
_button_EL_timer        0x2001da54      0xc  Data  Lc  platform.o [1]
_call_main              0x0006eb29           Code  Gb  cmain.o [7]
_cleanEasyLinkResource  0x000592b3     0x48  Code  Gb  EasyLink.o [1]
_connectFTCServer       0x00059091    0x222  Code  Gb  EasyLink.o [1]
_default_start_time     0x2001da50      0x4  Data  Lc  platform.o [1]
_easylinkConnectWiFi    0x00058ecd     0xce  Code  Lc  EasyLink.o [1]
_easylinkConnectWiFi    0x0005a757     0xcc  Code  Lc  MICOConfigServer.o [1]
_easylinkConnectWiFi_fast
                        0x00058fa1     0xde  Code  Lc  EasyLink.o [1]
_easylinkConnectWiFi_fast
                        0x00061899     0xde  Code  Lc  EasyLinkSoftAP.o [1]
_exit                   0x00068399           Code  Gb  cexit.o [7]
_gm_                    0x2001ee18    0x1d8  Data  Lc  dlmalloc.o [6]
_initBonjourForEasyLink
                        0x0006128d    0x236  Code  Lc  EasyLinkSoftAP.o [1]
_interface              0x20000018      0x1  Data  Lc  MDNSUtils.o [1]
_led_EL_Timeout_handler
                        0x0005e459      0x6  Code  Lc  MICOConfigDelegate.o [1]
_main                   0x0006eb33           Code  Gb  cmain.o [7]
_recved_uart_loopback_fd
                        0x20000034      0x4  Data  Lc  SppProtocol.o [1]
_uap_up                 0x00040c8f     0x58  Code  Lc  wifimgr.o [6]
_watchdog_reload_timer  0x2001d9c8      0xc  Data  Lc  MICOEntrance.o [1]
_watchdog_reload_timer_handler
                        0x0004f9c7      0xc  Code  Lc  MICOEntrance.o [1]
_wifiConnected          0x2001da30      0x1  Data  Lc  MICONTPClient.o [1]
_wifiConnected          0x2001da60      0x1  Data  Lc  RemoteTcpClient.o [1]
_wifiConnected_sem      0x2001da34      0x4  Data  Lc  MICONTPClient.o [1]
_wifiConnected_sem      0x2001da64      0x4  Data  Lc  RemoteTcpClient.o [1]
a1_pattern              0x0006f1b4      0xc  Data  Lc  smart_config.o [6]
a1_settings             0x0006f1e4      0xc  Data  Lc  smart_config.o [6]
a3_pattern              0x0006f1c0      0xc  Data  Lc  smart_config.o [6]
a3_settings             0x0006f1f0      0xc  Data  Lc  smart_config.o [6]
a_record_template       0x0006f274      0xc  Data  Lc  dns_redirect.o [6]
abort                   0x00050cc5      0x6  Code  Gb  abort.o [3]
accept                  0x0003ec69     0x44  Code  Gb  mxchipWNET.o [6]
accept_function         0x0005bb77     0x7a  Code  Lc  api_msg.o [6]
ackno                   0x20024b08      0x4  Data  Lc  tcp_in.o [6]
active_scan_ssid        0x2001e45c     0x24  Data  Lc  wifimgr.o [6]
add_client_to_cache     0x0004ef63     0xa2  Code  Lc  dhcp_server.o [6]
add_segment             0x00043e9b    0x23e  Code  Lc  dlmalloc.o [6]
aes_encrypt_mx          0x0004ba29     0x2a  Code  Gb  aes_wrap.o [6]
airkiss_parse           0x0003df05    0x236  Code  Lc  smart_config.o [6]
alink_get_tpsk          0x0003efa9      0x6  Code  Wk  mxchipWNET.o [6]
alink_success           0x0003c237     0xae  Code  Lc  smart_config.o [6]
alloc_socket            0x00047c05     0xb8  Code  Lc  sockets.o [6]
allrouters              0x20024f1c      0x4  Data  Lc  igmp.o [6]
allsystems              0x20024f18      0x4  Data  Lc  igmp.o [6]
alt_digits              0x0005e1b8      0x1  Data  Lc  xlocale_c.o [3]
am_pm                   0x0005e1bc      0x8  Data  Lc  xlocale_c.o [3]
ap_mode                 0x20000080      0x4  Data  Lc  wwd_ap.o [6]
ap_num                  0x200251d1      0x1  Data  Lc  smart_config.o [6]
ap_tbl                  0x2001e824    0x500  Data  Lc  smart_config.o [6]
appRestoreDefault_callback
                        0x0005b229     0x2e  Code  Gb  MICOAppEntrance.o [1]
app_stack_size          0x20000030      0x4  Data  Gb  MICOConfig.o [1]
app_thread_handle       0x2001e2a4      0x4  Data  Lc  wiced_rtos.o [6]
append_ap_adv_list      0x0004130b     0xaa  Code  Lc  wifimgr.o [6]
append_ap_list          0x00041291     0x7a  Code  Lc  wifimgr.o [6]
application_start       0x0004f9d5    0x714  Code  Gb  MICOEntrance.o [1]
application_thread_main
                        0x000427e9     0x1e  Code  Lc  wiced_rtos.o [6]
apssid                  0x2001ed2c      0x4  Data  Lc  smart_config.o [6]
apsta_events            0x0006f298      0xc  Data  Lc  wwd_ap.o [6]
arc4_decrypt            0x00045eab     0x22  Code  Gb  arc4.o [6]
arp_table               0x20024cb8     0xa0  Data  Lc  etharp.o [6]
arp_timer               0x0005270f     0x14  Code  Lc  lwiptimers.o [6]
array_list_add          0x00065c17      0x6  Code  Gb  arraylist.o [1]
array_list_free         0x00065b7f     0x2a  Code  Gb  arraylist.o [1]
array_list_get_idx      0x00065ba9     0x12  Code  Gb  arraylist.o [1]
array_list_length       0x00065c1d      0x4  Code  Gb  arraylist.o [1]
array_list_new          0x00065b4d     0x32  Code  Gb  arraylist.o [1]
array_list_put_idx      0x00065bbb     0x5c  Code  Gb  arraylist.o [1]
asctime                 0x000579a9     0x24  Code  Gb  asctime.o [3]
autoconfig_start        0x0003ce15     0x5a  Code  Gb  smart_config.o [6]
available_service_count
                        0x20000019      0x1  Data  Lc  MDNSUtils.o [1]
available_services      0x20000028      0x4  Data  Lc  MDNSUtils.o [1]
beacon_a1_pattern       0x0006f1cc      0xc  Data  Lc  smart_config.o [6]
beacon_a1_settings      0x0006f1fc      0xc  Data  Lc  smart_config.o [6]
beacon_a3_pattern       0x0006f1d8      0xc  Data  Lc  smart_config.o [6]
beacon_a3_settings      0x0006f208      0xc  Data  Lc  smart_config.o [6]
beacon_filter           0x0006f190      0xc  Data  Lc  smart_config.o [6]
beacon_match            0x00050ccb      0x1  Data  Lc  smart_config.o [6]
beacon_pattern          0x0006f154      0xc  Data  Lc  smart_config.o [6]
bind                    0x0003ebdd     0x34  Code  Gb  mxchipWNET.o [6]
bonjour_mutex           0x2000002c      0x4  Data  Lc  MDNSUtils.o [1]
bonjour_service_init    0x000663c5     0xd6  Code  Gb  MDNSUtils.o [1]
buffer                  0x2002ff00    0x100  Data  Gb  flash_kinetis.o [1]
cached_ip_addresses     0x20024fac     0x64  Data  Lc  dhcp_server.o [6]
cached_mac_addresses    0x20024f8c     0x20  Data  Lc  dhcp_server.o [6]
channel_tbl             0x2001e804     0x10  Data  Lc  smart_config.o [6]
check_sum_validate      0x0003cee5    0x174  Code  Lc  smart_config.o [6]
chip_ram_size           0x2000006c      0x4  Data  Lc  wwd_firmware.o [6]
clientNotify_WifiStatusHandler
                        0x0006c7a1     0x1e  Code  Gb  RemoteTcpClient.o [1]
close                   0x0003eda9      0x8  Code  Gb  mxchipWNET.o [6]
cmdClose                0x0006c78c      0x8  Data  Gb  HomeProtocolParse.o [1]
cmdOpen                 0x0006c784      0x8  Data  Gb  HomeProtocolParse.o [1]
cmp_era_date            0x000638b5     0x7c  Code  Lc  xgentime.o [3]
config_mode             0x2001edf8      0x4  Data  Lc  smart_config.o [6]
configure_enet_pins     0x0005d641     0xb8  Code  Gb  pin_mux.o [1]
configure_gpio_pins     0x0005d6fd    0x10a  Code  Gb  pin_mux.o [1]
configure_sdhc_pins     0x0005d807     0xac  Code  Gb  pin_mux.o [1]
configure_spi_pins      0x0005d8b3     0x56  Code  Gb  pin_mux.o [1]
configure_uart_pins     0x0005d909     0x42  Code  Gb  pin_mux.o [1]
connect                 0x0003ec11     0x50  Code  Gb  mxchipWNET.o [6]
connected_ap_info       0x0003f037     0x28  Code  Gb  MICONotificationCenter.o [1]
context                 0x2001d9c4      0x4  Data  Lc  MICOEntrance.o [1]
cooee_beacon_address_mask
                        0x0006f330      0x8  Data  Lc  smart_config.o [6]
cooee_beacon_address_match
                        0x0006f338      0x8  Data  Lc  smart_config.o [6]
cooee_upper_address_mask
                        0x0006f3f0      0x4  Data  Lc  smart_config.o [6]
cooee_upper_address_match
                        0x0006f3f4      0x4  Data  Lc  smart_config.o [6]
core_base_address       0x0006f2bc      0xc  Data  Lc  wwd_internal.o [6]
country_code            0x20000070      0x4  Data  Lc  wifi.o [6]
credit_diff             0x200251e0      0x1  Data  Lc  SDPCM.o [6]
current_channel         0x200251d2      0x1  Data  Lc  smart_config.o [6]
current_header          0x2001e578      0x4  Data  Gb  ip.o [6]
current_iphdr_dest      0x2001e580      0x4  Data  Gb  ip.o [6]
current_iphdr_src       0x2001e57c      0x4  Data  Gb  ip.o [6]
current_netif           0x2001e574      0x4  Data  Gb  ip.o [6]
current_uart            0x2001d94c      0x1  Data  Lc  MicoDriverUart.o [1]
cyassl_log              0x0005d3ed     0x22  Code  Lc  logging.o [6]
data_index              0x2001ede4      0x4  Data  Lc  smart_config.o [6]
data_tbl                0x2001edcc      0xc  Data  Lc  smart_config.o [6]
data_validate           0x0003d061     0xb2  Code  Lc  smart_config.o [6]
days                    0x0005e1c4     0x58  Data  Lc  xlocale_c.o [3]
dbg_uart_init           0x0005691d     0x44  Code  Gb  hardware_init.o [1]
debug_level             0x20024d5c      0x4  Data  Gb  mxchip_debug.o [6]
decode_chinese          0x0003c1a9     0x8e  Code  Lc  smart_config.o [6]
dhcp_ack_option_buff    0x0006f408      0x4  Data  Lc  dhcp_server.o [6]
dhcp_bind               0x0004db05     0xd4  Code  Lc  dhcp.o [6]
dhcp_coarse_tmr         0x0004d70b     0x46  Code  Gb  dhcp.o [6]
dhcp_create_msg         0x0004e2e5    0x158  Code  Lc  dhcp.o [6]
dhcp_delete_msg         0x0004e451     0x1e  Code  Lc  dhcp.o [6]
dhcp_discover           0x0004da11     0xf4  Code  Lc  dhcp.o [6]
dhcp_fine_tmr           0x0004d751     0x44  Code  Gb  dhcp.o [6]
dhcp_handle_ack         0x0004d863     0xc6  Code  Lc  dhcp.o [6]
dhcp_handle_nak         0x0004d589     0x3a  Code  Lc  dhcp.o [6]
dhcp_handle_offer       0x0004d5c3     0x2a  Code  Lc  dhcp.o [6]
dhcp_interrupted        0x200251e8      0x1  Data  Lc  wiced_network.o [6]
dhcp_magic_cookie       0x0006f410      0x4  Data  Lc  dhcp_server.o [6]
dhcp_nak_option_buff    0x0006f40c      0x4  Data  Lc  dhcp_server.o [6]
dhcp_needed             0x2001e4d8      0x4  Data  Lc  mico_ethif.o [6]
dhcp_offer_option_buff  0x0006f404      0x4  Data  Lc  dhcp_server.o [6]
dhcp_option             0x0004df03     0x26  Code  Lc  dhcp.o [6]
dhcp_option_byte        0x0004df29     0x12  Code  Lc  dhcp.o [6]
dhcp_option_long        0x0004df65     0x4c  Code  Lc  dhcp.o [6]
dhcp_option_short       0x0004df3b     0x2a  Code  Lc  dhcp.o [6]
dhcp_option_trailer     0x0004e46f     0x3a  Code  Lc  dhcp.o [6]
dhcp_parse_reply        0x0004dfb1    0x244  Code  Lc  dhcp.o [6]
dhcp_rebind             0x0004dc99     0xc0  Code  Lc  dhcp.o [6]
dhcp_reboot             0x0004dd59     0xaa  Code  Lc  dhcp.o [6]
dhcp_recv               0x0004e201     0xda  Code  Lc  dhcp.o [6]
dhcp_release            0x0004de03     0xba  Code  Gb  dhcp.o [6]
dhcp_renew              0x0004dbd9     0xc0  Code  Gb  dhcp.o [6]
dhcp_rx_options_given   0x20024f08      0xc  Data  Gb  dhcp.o [6]
dhcp_rx_options_val     0x20024ee0     0x28  Data  Gb  dhcp.o [6]
dhcp_select             0x0004d5ed    0x11e  Code  Lc  dhcp.o [6]
dhcp_set_state          0x0004deef     0x14  Code  Lc  dhcp.o [6]
dhcp_set_struct         0x0004d929     0x14  Code  Gb  dhcp.o [6]
dhcp_start              0x0004d93d     0xd4  Code  Gb  dhcp.o [6]
dhcp_stop               0x0004debd     0x32  Code  Gb  dhcp.o [6]
dhcp_t1_timeout         0x0004d82b     0x1c  Code  Lc  dhcp.o [6]
dhcp_t2_timeout         0x0004d847     0x1c  Code  Lc  dhcp.o [6]
dhcp_thread             0x0004ead5    0x41e  Code  Lc  dhcp_server.o [6]
dhcp_timeout            0x0004d795     0x96  Code  Lc  dhcp.o [6]
dhcp_timer_coarse       0x00052723     0x14  Code  Lc  lwiptimers.o [6]
dhcp_timer_fine         0x00052737     0x14  Code  Lc  lwiptimers.o [6]
digits                  0x000673e4     0x28  Data  Lc  xstoul.o [3]
digits                  0x00068ac0     0x28  Data  Lc  xstoull.o [3]
dispose_chunk           0x00044375    0x584  Code  Lc  dlmalloc.o [6]
div                     0x000541f1      0xe  Code  Gb  div.o [3]
dmaCh0                  0x2001d0ec     0x10  Data  Gb  k64_spi.o [1]
dmaCh1                  0x2001d0fc     0x10  Data  Gb  k64_spi.o [1]
dmul                    0x00069081     0x5a  Code  Lc  xdtento.o [5]
dns_block_name          0x2001e284      0x4  Data  Lc  mxchipWNET.o [6]
dns_check_entries       0x000466ab     0x18  Code  Lc  dns.o [6]
dns_check_entry         0x000465db     0xd0  Code  Lc  dns.o [6]
dns_client_add_server_address
                        0x0004c0d9     0x42  Code  Gb  dnsclient.o [6]
dns_client_remove_all_server_addresses
                        0x0004c11b     0x18  Code  Gb  dnsclient.o [6]
dns_compare_name        0x00046497     0x38  Code  Lc  dns.o [6]
dns_compare_name_to_string
                        0x00066143     0x82  Code  Lc  MDNSUtils.o [1]
dns_enqueue             0x00046831    0x100  Code  Lc  dns.o [6]
dns_found               0x0003edb1     0x42  Code  Lc  mxchipWNET.o [6]
dns_gethostbyname       0x00046931     0x6e  Code  Gb  dns.o [6]
dns_getserver           0x00046403     0x1a  Code  Gb  dns.o [6]
dns_init                0x00046351     0x62  Code  Gb  dns.o [6]
dns_ip_addr             0x2001e288      0x4  Data  Lc  mxchipWNET.o [6]
dns_ip_set              0x0003f0cb     0x1e  Code  Gb  MICONotificationCenter.o [1]
dns_lookup              0x0004643d     0x5a  Code  Lc  dns.o [6]
dns_mutex               0x2001e280      0x4  Data  Lc  mxchipWNET.o [6]
dns_parse_name          0x000464cf     0x24  Code  Lc  dns.o [6]
dns_payload             0x2001f668      0x4  Data  Lc  dns.o [6]
dns_payload_buffer      0x2001f464    0x204  Data  Lc  dns.o [6]
dns_pcb                 0x2001eff8      0x4  Data  Lc  dns.o [6]
dns_read_uint16         0x000663a9     0x1c  Code  Lc  MDNSUtils.o [1]
dns_recv                0x000466c5    0x16c  Code  Lc  dns.o [6]
dns_redirector          0x2001e418     0x3c  Data  Lc  wifimgr.o [6]
dns_send                0x000464f3     0xe8  Code  Lc  dns.o [6]
dns_seqno               0x200251d7      0x1  Data  Lc  dns.o [6]
dns_server_address      0x2001e3ec     0x14  Data  Lc  wifimgr.o [6]
dns_server_address_array
                        0x20024d60     0x28  Data  Lc  dnsclient.o [6]
dns_server_address_count
                        0x20024d88      0x4  Data  Lc  dnsclient.o [6]
dns_server_num          0x200251d8      0x1  Data  Lc  dns.o [6]
dns_servers             0x2001f45c      0x8  Data  Lc  dns.o [6]
dns_setserver           0x000463b3     0x50  Code  Gb  dns.o [6]
dns_table               0x2001effc    0x460  Data  Lc  dns.o [6]
dns_thread_main         0x0004baf1    0x14c  Code  Lc  dns_redirect.o [6]
dns_timer               0x0005275d     0x14  Code  Lc  lwiptimers.o [6]
dns_tmr                 0x0004642b     0x12  Code  Gb  dns.o [6]
dns_write_header        0x00066237     0x42  Code  Lc  MDNSUtils.o [1]
dns_write_record        0x00066279     0xc6  Code  Lc  MDNSUtils.o [1]
dns_write_string        0x000661c5     0x72  Code  Lc  MDNSUtils.o [1]
dns_write_uint16        0x00066397     0x12  Code  Lc  MDNSUtils.o [1]
do_bind                 0x0005c023     0x74  Code  Gb  api_msg.o [6]
do_close_internal       0x0005be2d    0x138  Code  Lc  api_msg.o [6]
do_connect              0x0005c135     0xd8  Code  Gb  api_msg.o [6]
do_connected            0x0005c097     0x9e  Code  Lc  api_msg.o [6]
do_delconn              0x0005bf65     0xbe  Code  Gb  api_msg.o [6]
do_disconnect           0x0005c20d     0x2e  Code  Gb  api_msg.o [6]
do_getaddr              0x0005c5e9     0xb2  Code  Gb  api_msg.o [6]
do_listen               0x0005c23b     0xc6  Code  Gb  api_msg.o [6]
do_netifapi_netif_common
                        0x0004f089     0x26  Code  Gb  netifapi.o [6]
do_newconn              0x0005bc95     0x20  Code  Gb  api_msg.o [6]
do_recv                 0x0005c3b7     0x60  Code  Gb  api_msg.o [6]
do_send                 0x0005c305     0xb2  Code  Gb  api_msg.o [6]
do_write                0x0005c583     0x66  Code  Gb  api_msg.o [6]
do_writemore            0x0005c417    0x16c  Code  Lc  api_msg.o [6]
dumy                    0x2001da74    0x800  Data  Lc  wwd_bus.o [1]
easy_link_fail          0x0003c06b      0xe  Code  Lc  smart_config.o [6]
easy_link_main_thread   0x0003c705    0x524  Code  Lc  smart_config.o [6]
easy_link_start_cmd     0x0003cce5     0xd4  Code  Lc  smart_config.o [6]
easy_link_stop          0x0003cdb9     0x3a  Code  Gb  smart_config.o [6]
easy_link_success       0x0003c121     0x84  Code  Lc  smart_config.o [6]
easylink2_start         0x0003ce01      0xc  Code  Gb  smart_config.o [6]
easylink2_stop          0x0003ce0d      0x8  Code  Gb  smart_config.o [6]
easylinkClient_fd       0x20016574      0x4  Data  Lc  EasyLink.o [1]
easylink_break          0x2001ed24      0x4  Data  Lc  smart_config.o [6]
easylink_parse          0x0003da11    0x3b0  Code  Lc  smart_config.o [6]
easylink_sem            0x20016570      0x4  Data  Lc  EasyLink.o [1]
easylink_thread         0x00059331    0x3ec  Code  Lc  EasyLink.o [1]
easylink_user_data_result
                        0x0003f093     0x1e  Code  Gb  MICONotificationCenter.o [1]
easylinkv2_parse        0x0003ddd5    0x112  Code  Gb  smart_config.o [6]
easylinkv2_success      0x0003c2e5     0x8c  Code  Lc  smart_config.o [6]
ebuf                    0x20025010     0x50  Data  Lc  xfiles.o [3]
empty_cache             0x0006f3c8      0x8  Data  Lc  dhcp_server.o [6]
enable_dns_redirector   0x20000044      0x4  Data  Lc  wifimgr.o [6]
enable_ps               0x00040979      0xa  Code  Lc  wifimgr.o [6]
enet_hash_address       0x000636b5     0x36  Code  Gb  enet.o [1]
enet_set_address        0x000636eb     0x56  Code  Gb  enet.o [1]
era                     0x0005e21c      0x1  Data  Lc  xlocale_c.o [3]
err_tcp                 0x0005ba87     0xb8  Code  Lc  api_msg.o [6]
err_to_errno_table      0x0006e324     0x40  Data  Lc  sockets.o [6]
errno                   0x2001f66c      0x4  Data  Gb  sockets.o [6]
eth_dhcp_handle         0x2001e4dc     0x3c  Data  Gb  mico_ethif.o [6]
etharp_arp_input        0x0004c519    0x144  Code  Lc  etharp.o [6]
etharp_cached_entry     0x200251e6      0x1  Data  Lc  etharp.o [6]
etharp_find_addr        0x0004c4c1     0x58  Code  Gb  etharp.o [6]
etharp_output           0x0004c65d     0xfa  Code  Gb  etharp.o [6]
etharp_query            0x0004c757    0x198  Code  Gb  etharp.o [6]
etharp_raw              0x0004c8ef     0xc8  Code  Lc  etharp.o [6]
etharp_remove_all_entry
                        0x0004c4a9     0x18  Code  Gb  etharp.o [6]
etharp_request          0x0004c9b7     0x24  Code  Gb  etharp.o [6]
etharp_send_ip          0x0004c3b3     0x34  Code  Lc  etharp.o [6]
etharp_tmr              0x0004c1c3     0x74  Code  Gb  etharp.o [6]
ethbroadcast            0x0006f390      0x8  Data  Gb  etharp.o [6]
ethernet_input          0x0004c9ed     0x5c  Code  Gb  etharp.o [6]
ethernet_interface_init
                        0x00057795     0x26  Code  Lc  mico_ethif.o [6]
ethernetif_init         0x000542df     0x30  Code  Gb  wwd_network.o [6]
ethernetif_input        0x00057755     0x40  Code  Lc  mico_ethif.o [6]
ethif                   0x2001e584      0x4  Data  Lc  ip.o [6]
ethif_inited            0x2001e4d4      0x4  Data  Lc  mico_ethif.o [6]
ethzero                 0x0006f398      0x8  Data  Gb  etharp.o [6]
event_callback          0x00048969    0x160  Code  Lc  sockets.o [6]
event_list              0x20024a8c     0x3c  Data  Lc  SDPCM.o [6]
event_rx_cb             0x00048fb1     0x5c  Code  Gb  sockets.o [6]
event_semaphore         0x2001eff0      0x4  Data  Lc  wps_host.o [6]
events                  0x2001f670     0x60  Data  Lc  sockets.o [6]
exit                    0x00067289      0x4  Code  Gb  exit.o [3]
fclose                  0x00069499     0x7a  Code  Gb  fclose.o [3]
fflush                  0x0006965b     0x34  Code  Gb  fflush.o [3]
fflushOne               0x000695e5     0x76  Code  Lc  fflush.o [3]
file_mtx                0x200250b8     0x20  Data  Lc  xsyslock_mtx.o [3]
fill_ssid               0x0003e261     0x54  Code  Lc  smart_config.o [6]
findChunkedDataLength   0x000608fd     0x54  Code  Gb  HTTPUtils.o [1]
find_entry              0x0004c237    0x17c  Code  Lc  etharp.o [6]
find_option             0x0004eef3     0x32  Code  Lc  dhcp_server.o [6]
find_ssid_by_bssid      0x0003bfd7     0x38  Code  Lc  smart_config.o [6]
flags                   0x200251e4      0x1  Data  Lc  tcp_in.o [6]
flashStorageAddress     0x20000008      0x4  Data  Lc  HTTPUtils.o [1]
flash_inilized          0x2001d940      0x4  Data  Lc  MicoDriverFlash.o [1]
fmts                    0x0005e220     0x30  Data  Lc  xlocale_c.o [3]
formatMACAddr           0x000579d5     0x9c  Code  Gb  StringUtils.o [1]
fputc                   0x0006e235     0x56  Code  Gb  fputc.o [3]
free_ap_list            0x00041aa1     0x22  Code  Lc  wifimgr.o [6]
free_entry              0x0004c18f     0x34  Code  Lc  etharp.o [6]
free_etharp_q           0x0004c171     0x1e  Code  Lc  etharp.o [6]
free_socket             0x00047cbd     0x38  Code  Lc  sockets.o [6]
frmds_bcast_mask        0x0006f124      0xc  Data  Lc  smart_config.o [6]
frmds_bcast_match       0x0006f130      0xc  Data  Lc  smart_config.o [6]
frmds_brast_pattern     0x0006f148      0xc  Data  Lc  smart_config.o [6]
frmds_filter            0x0006f184      0xc  Data  Lc  smart_config.o [6]
fseek                   0x0006df55     0x22  Code  Gb  fseek.o [3]
gApAdvList              0x2001e36c      0x8  Data  Lc  wifimgr.o [6]
gApList                 0x2001e364      0x8  Data  Lc  wifimgr.o [6]
g_ap_entry              0x2001e2b4     0x70  Data  Lc  wifimgr.o [6]
g_dmamuxBaseAddr        0x0006eb3c      0x4  Data  Gb  fsl_edma_common.o [1]
g_dspiBaseAddr          0x0006f2a4      0xc  Data  Gb  fsl_dspi_common.o [4]
g_dspiStatePtr          0x2001e568      0xc  Data  Gb  fsl_dspi_shared_function.o [4]
g_edma                  0x2001aa18      0x4  Data  Gb  fsl_edma_driver.o [1]
g_edmaBaseAddr          0x0006eb38      0x4  Data  Gb  fsl_edma_common.o [1]
g_edmaErrIrqId          0x0006eb50      0x1  Data  Gb  fsl_edma_common.o [1]
g_edmaIrqId             0x0006eb40     0x10  Data  Gb  fsl_edma_common.o [1]
g_edmaState             0x2001b050     0x44  Data  Lc  k64_spi.o [1]
g_edmaUserConfig        0x2001b048      0x4  Data  Lc  k64_spi.o [1]
g_gpioBaseAddr          0x0006ee14     0x14  Data  Gb  fsl_gpio_common.o [4]
g_mcgBaseAddr           0x0006f3ec      0x4  Data  Gb  fsl_clock_manager.o [4]
g_portBaseAddr          0x0006ee28     0x14  Data  Gb  fsl_gpio_common.o [4]
g_portIrqId             0x0006f3b0      0x8  Data  Gb  fsl_gpio_common.o [4]
g_simBaseAddr           0x0006f3e8      0x4  Data  Gb  fsl_clock_manager.o [4]
g_uartBaseAddr          0x0006eb54     0x18  Data  Gb  fsl_uart_common.o [1]
g_uartRxTxIrqId         0x20000000      0x8  Data  Gb  fsl_uart_common.o [1]
g_uartStatePtr          0x2001aa1c     0x18  Data  Gb  fsl_uart_common.o [1]
getNetPara              0x0003e891     0xb6  Code  Gb  mxchipWNET.o [6]
get_client_ip_address_from_cache
                        0x0004ef25     0x3e  Code  Lc  dhcp_server.o [6]
get_easylink_channel_list
                        0x00042125     0xcc  Code  Gb  wifimgr.o [6]
get_ethnetif            0x0004b561      0x8  Code  Gb  ip.o [6]
get_event_by_fd         0x00048f61     0x2c  Code  Lc  sockets.o [6]
get_fd_by_event         0x00048f8d     0x24  Code  Lc  sockets.o [6]
get_if_ip               0x00065dbb     0x82  Code  Lc  MDNSUtils.o [1]
get_max_channel         0x00043821     0x2c  Code  Gb  wifi.o [6]
get_scan_result_adv_list
                        0x00041455     0x68  Code  Lc  wifimgr.o [6]
get_scan_result_list    0x000413b5     0x68  Code  Lc  wifimgr.o [6]
get_sniffer_channel     0x0003c371     0xbc  Code  Gb  smart_config.o [6]
get_socket              0x00047bab     0x30  Code  Lc  sockets.o [6]
get_ssid_key_end        0x0003c4cb     0x1c  Code  Lc  smart_config.o [6]
getera                  0x00063931     0x90  Code  Lc  xgentime.o [3]
gethostbyname           0x0003edf3     0xca  Code  Gb  mxchipWNET.o [6]
getint                  0x000683ab     0x28  Code  Lc  xgetdst.o [3]
getval                  0x00063751     0x60  Code  Lc  xgentime.o [3]
gpio_clock_mask_list    0x0005c9a4     0x14  Data  Lc  k64_gpio.o [1]
gpio_init               0x0005c6bd     0xa2  Code  Gb  k64_gpio.o [1]
gpio_irq                0x0005c905     0x46  Code  Gb  k64_gpio.o [1]
gpio_irq_data           0x2001ab34    0x514  Data  Lc  k64_gpio.o [1]
gpio_irq_disable        0x0005c843     0x60  Code  Gb  k64_gpio.o [1]
gpio_irq_enable         0x0005c7bf     0x84  Code  Gb  k64_gpio.o [1]
gpio_irq_type_list      0x0005c99c      0x8  Data  Lc  k64_gpio.o [1]
gpio_list               0x0005c974     0x14  Data  Lc  k64_gpio.o [1]
gpio_mapping            0x0006e45c     0x34  Data  Gb  platform.o [1]
gpio_output_high        0x0005c789     0x18  Code  Gb  k64_gpio.o [1]
gpio_output_low         0x0005c7a1     0x18  Code  Gb  k64_gpio.o [1]
gpio_port_list          0x0005c988     0x14  Data  Lc  k64_gpio.o [1]
gpio_select_mux         0x0005c75f     0x2a  Code  Gb  k64_gpio.o [1]
gspi_command_mapping    0x00042d42      0x2  Data  Lc  wwd_bus_protocol.o [6]
hardware_init           0x00056891     0x8c  Code  Gb  hardware_init.o [1]
health_monitor_thread   0x00041fb9    0x154  Code  Lc  wifimgr.o [6]
host_buffer_add_remove_at_front
                        0x00045f55     0x1a  Code  Gb  wwd_buffer.o [6]
host_buffer_get         0x00045ed1     0x74  Code  Gb  wwd_buffer.o [6]
host_buffer_get_current_piece_data_pointer
                        0x00045f4d      0x4  Code  Gb  wwd_buffer.o [6]
host_buffer_get_current_piece_size
                        0x00045f51      0x4  Code  Gb  wwd_buffer.o [6]
host_buffer_init        0x00045ecd      0x4  Code  Gb  wwd_buffer.o [6]
host_buffer_release     0x00045f45      0x8  Code  Gb  wwd_buffer.o [6]
host_buffer_set_data_end
                        0x00045f6f      0xe  Code  Gb  wwd_buffer.o [6]
host_network_process_eapol_data
                        0x0005d3a1     0x38  Code  Gb  wps_host.o [6]
host_network_process_ethernet_data
                        0x00054267     0x78  Code  Gb  wwd_network.o [6]
host_network_process_raw_packet
                        0x0003e655     0x60  Code  Gb  smart_config.o [6]
host_platform_bus_deinit
                        0x00052e81     0x24  Code  Gb  wwd_bus.o [1]
host_platform_bus_init  0x00052e05     0x7c  Code  Gb  wwd_bus.o [1]
host_platform_deinit    0x000506ad      0x2  Code  Gb  wlan_platform.o [1]
host_platform_deinit_wlan_powersave_clock
                        0x000506e9      0x4  Code  Gb  wlan_platform.o [1]
host_platform_init      0x000506a9      0x4  Code  Gb  wlan_platform.o [1]
host_platform_init_wlan_powersave_clock
                        0x000506e5      0x4  Code  Gb  wlan_platform.o [1]
host_platform_is_in_interrupt_context
                        0x000506cf     0x12  Code  Gb  wlan_platform.o [1]
host_platform_is_sdio_int_asserted
                        0x000535dd      0x4  Code  Wk  wwd_thread.o [6]
host_platform_memory_wifi_nvram_size
                        0x0005d1eb      0x6  Code  Wk  wwd_firmware.o [6]
host_platform_power_wifi
                        0x0004f2b5     0x10  Code  Gb  platform.o [1]
host_platform_read_memory_wifi_firmware
                        0x0005d121     0x50  Code  Gb  wwd_firmware.o [6]
host_platform_read_memory_wifi_nvram
                        0x0005d171     0x7a  Code  Gb  wwd_firmware.o [6]
host_platform_read_wifi_firmware
                        0x00063029      0x8  Code  Gb  read_wifi_firmware.o [6]
host_platform_read_wifi_nvram
                        0x00063031      0x8  Code  Gb  read_wifi_firmware.o [6]
host_platform_read_wifi_nvram_image
                        0x0005d1f1      0x6  Code  Wk  wwd_firmware.o [6]
host_platform_reset_wifi
                        0x0004f2a5     0x10  Code  Gb  platform.o [1]
host_platform_spi_transfer
                        0x00052ea5     0x32  Code  Gb  wwd_bus.o [1]
host_platform_wifi_nvram_size
                        0x00063039      0x8  Code  Gb  read_wifi_firmware.o [6]
host_rtos_create_thread
                        0x000469d5     0x18  Code  Gb  wwd_rtos.o [6]
host_rtos_create_thread_with_arg
                        0x000469ed     0x36  Code  Gb  wwd_rtos.o [6]
host_rtos_deinit_semaphore
                        0x00046ab7     0x16  Code  Gb  wwd_rtos.o [6]
host_rtos_delay_milliseconds
                        0x00046adb     0x18  Code  Gb  wwd_rtos.o [6]
host_rtos_delete_terminated_thread
                        0x00046a2f      0x4  Code  Gb  wwd_rtos.o [6]
host_rtos_finish_thread
                        0x00046a23      0xc  Code  Gb  wwd_rtos.o [6]
host_rtos_get_semaphore
                        0x00046a55     0x20  Code  Gb  wwd_rtos.o [6]
host_rtos_get_time      0x00046acd      0xe  Code  Gb  wwd_rtos.o [6]
host_rtos_init_semaphore
                        0x00046a33     0x22  Code  Gb  wwd_rtos.o [6]
host_rtos_set_semaphore
                        0x00046a75     0x42  Code  Gb  wwd_rtos.o [6]
hostname                0x2001e518     0x40  Data  Lc  mico_ethif.o [6]
hostname                0x20024ebc     0x20  Data  Lc  wiced_network.o [6]
htobe16                 0x0004ba59      0xc  Code  Lc  dns_redirect.o [6]
htobe32                 0x0004ba65     0x18  Code  Lc  dns_redirect.o [6]
htobe32                 0x0004ea39     0x18  Code  Lc  dhcp_server.o [6]
htonl                   0x0003eb47      0x8  Code  Gb  mxchipWNET.o [6]
htons                   0x0003eb3b      0xc  Code  Gb  mxchipWNET.o [6]
httpHeader              0x20016578      0x4  Data  Lc  EasyLink.o [1]
httpResponse            0x2001657c      0x4  Data  Lc  EasyLink.o [1]
hwaddr                  0x2001e558      0x8  Data  Lc  mico_ethif.o [6]
icmp_dest_unreach       0x00055c71      0xe  Code  Gb  icmp.o [6]
icmp_input              0x00055afd    0x16c  Code  Gb  icmp.o [6]
icmp_send_response      0x00055c7f      0x2  Code  Lc  icmp.o [6]
igmp_delaying_member    0x0004e92f     0x30  Code  Lc  igmp.o [6]
igmp_group_list         0x20024f14      0x4  Data  Lc  igmp.o [6]
igmp_init               0x0004e4d1     0x20  Code  Gb  igmp.o [6]
igmp_input              0x0004e695     0xfa  Code  Gb  igmp.o [6]
igmp_ip_output_if       0x0004e95f     0x2e  Code  Lc  igmp.o [6]
igmp_joingroup          0x0004e78f     0xa0  Code  Gb  igmp.o [6]
igmp_leavegroup         0x0004e82f     0xa6  Code  Gb  igmp.o [6]
igmp_lookfor_group      0x0004e5cf     0x28  Code  Gb  igmp.o [6]
igmp_lookup_group       0x0004e5f7     0x50  Code  Lc  igmp.o [6]
igmp_remove_group       0x0004e647     0x4e  Code  Lc  igmp.o [6]
igmp_report_groups      0x0004e5ad     0x22  Code  Gb  igmp.o [6]
igmp_send               0x0004e98d     0x88  Code  Lc  igmp.o [6]
igmp_start              0x0004e4f1     0x68  Code  Gb  igmp.o [6]
igmp_start_timer        0x0004e90d     0x1c  Code  Lc  igmp.o [6]
igmp_stop               0x0004e559     0x54  Code  Gb  igmp.o [6]
igmp_stop_timer         0x0004e929      0x6  Code  Lc  igmp.o [6]
igmp_timeout            0x0004e8fd     0x10  Code  Lc  igmp.o [6]
igmp_timer              0x0005274b     0x12  Code  Lc  lwiptimers.o [6]
igmp_tmr                0x0004e8d5     0x28  Code  Gb  igmp.o [6]
inet_addr               0x0003eb13      0xc  Code  Gb  mxchipWNET.o [6]
inet_chksum             0x00054501      0xe  Code  Gb  inet_chksum.o [6]
inet_chksum_pbuf        0x0005450f     0x56  Code  Gb  inet_chksum.o [6]
inet_chksum_pseudo      0x00054459     0xa8  Code  Gb  inet_chksum.o [6]
inet_ntoa               0x0003eb1f     0x1c  Code  Gb  mxchipWNET.o [6]
init_architecture       0x0004f0d7     0x24  Code  Gb  ksdk_platform.o [1]
init_bins               0x00043a9b     0x1a  Code  Lc  dlmalloc.o [6]
init_clocks             0x0004f0d1      0x4  Code  Wk  ksdk_platform.o [1]
init_data_bss           0x0006e1dd     0x58  Code  Gb  startup.o [1]
init_memory             0x0004f0d5      0x2  Code  Wk  ksdk_platform.o [1]
init_mparams            0x0004387b     0x70  Code  Lc  dlmalloc.o [6]
init_platform           0x0004f22d     0x56  Code  Gb  platform.o [1]
init_top                0x00043a5f     0x3c  Code  Lc  dlmalloc.o [6]
initlocks               0x0005b729     0x6e  Code  Lc  xsyslock_mtx.o [3]
inseg                   0x20024ae8     0x14  Data  Lc  tcp_in.o [6]
insert_cb               0x2001e454      0x4  Data  Lc  wifimgr.o [6]
insert_magic_code       0x0003d289     0x72  Code  Lc  smart_config.o [6]
insert_result_by_rssi   0x000418fb     0x6c  Code  Lc  wifimgr.o [6]
internalFlashWrite      0x0005dc9d     0x8a  Code  Gb  MicoDriverFlash.o [1]
internal_dhcp_server    0x20024e54     0x38  Data  Lc  wiced_network.o [6]
internal_mallinfo       0x000438eb     0xde  Code  Lc  dlmalloc.o [6]
internal_packet_create  0x0004628b     0x62  Code  Lc  tcpip.o [6]
internal_uart_init      0x0006255f     0x90  Code  Lc  MicoDriverUart.o [1]
internal_udp_send       0x000462ed     0x5a  Code  Lc  tcpip.o [6]
ioctl_abort_count       0x20024ad4      0x4  Data  Lc  SDPCM.o [6]
ioctl_req_sent          0x200251e2      0x1  Data  Lc  SDPCM.o [6]
ip4_addr_isbroadcast    0x00047929     0x4c  Code  Gb  ip_addr.o [6]
ip_addr_any             0x0006f3f8      0x4  Data  Gb  ip_addr.o [6]
ip_addr_broadcast       0x0006f3fc      0x4  Data  Gb  ip_addr.o [6]
ip_address_get          0x0004b569     0x72  Code  Gb  ip.o [6]
ip_id                   0x200251c0      0x2  Data  Lc  ip.o [6]
ip_input                0x0004b64d    0x228  Code  Gb  ip.o [6]
ip_networking_up        0x200251c8      0x2  Data  Lc  wiced_network.o [6]
ip_output               0x0004b9d5     0x34  Code  Gb  ip.o [6]
ip_output_if            0x0004b875     0x22  Code  Gb  ip.o [6]
ip_output_if_opt        0x0004b897    0x13e  Code  Gb  ip.o [6]
ip_route                0x0004b5db     0x72  Code  Gb  ip.o [6]
ipaddr_addr             0x00047975     0x16  Code  Gb  ip_addr.o [6]
ipaddr_aton             0x0004798b    0x158  Code  Gb  ip_addr.o [6]
ipaddr_ntoa_r           0x00047ae3     0x8e  Code  Gb  ip_addr.o [6]
iphdr                   0x20024b00      0x4  Data  Lc  tcp_in.o [6]
ipv4_to_string          0x0004f041     0x48  Code  Lc  dhcp_server.o [6]
is_buffer_in_send_queue
                        0x0004afe3     0x30  Code  Gb  SDPCM.o [6]
is_ps_enabled           0x0003ea95      0x8  Code  Gb  mxchipWNET.o [6]
is_valid_channel        0x0003ce81     0x4e  Code  Gb  smart_config.o [6]
isalpha                 0x0005e419     0x14  Code  Gb  isxxx.o [3]
isdst                   0x0005e250      0x1  Data  Lc  xlocale_c.o [3]
isleapyr                0x000637b1     0x44  Code  Lc  xgentime.o [3]
isspace                 0x0005e42d     0x14  Code  Gb  isxxx.o [3]
join_events             0x0006eae4     0x1c  Data  Gb  wwd_wifi.o [6]
join_fail               0x0003f11d     0x1a  Code  Gb  MICONotificationCenter.o [1]
json_escape_str         0x0005f6c9     0xde  Code  Lc  json_object.o [1]
json_hex_chars          0x20000010      0x4  Data  Gb  json_object.o [1]
json_number_chars       0x2000000c      0x4  Data  Gb  json_object.o [1]
json_object_array_add   0x0005fc9f      0x6  Code  Gb  json_object.o [1]
json_object_array_delete
                        0x0005fc4d      0xc  Code  Lc  json_object.o [1]
json_object_array_entry_free
                        0x0005fc3d     0x10  Code  Lc  json_object.o [1]
json_object_array_to_json_string
                        0x0005fb99     0x5e  Code  Lc  json_object.o [1]
json_object_boolean_to_json_string
                        0x0005f93b     0x16  Code  Lc  json_object.o [1]
json_object_double_to_json_string
                        0x0005fac5     0x14  Code  Lc  json_object.o [1]
json_object_generic_delete
                        0x0005f7c1      0x6  Code  Lc  json_object.o [1]
json_object_get         0x0005f7a7      0xa  Code  Gb  json_object.o [1]
json_object_get_boolean
                        0x0005f981     0x48  Code  Gb  json_object.o [1]
json_object_get_int     0x0005fa13     0x76  Code  Gb  json_object.o [1]
json_object_get_object  0x0005f909     0x10  Code  Gb  json_object.o [1]
json_object_get_string  0x0005fb89     0x10  Code  Gb  json_object.o [1]
json_object_int_to_json_string
                        0x0005f9c9     0x14  Code  Lc  json_object.o [1]
json_object_lh_entry_free
                        0x0005f885     0x20  Code  Lc  json_object.o [1]
json_object_new_array   0x0005fc59     0x40  Code  Gb  json_object.o [1]
json_object_new_boolean
                        0x0005f951     0x28  Code  Gb  json_object.o [1]
json_object_new_double  0x0005fad9     0x36  Code  Gb  json_object.o [1]
json_object_new_int     0x0005f9e9     0x2a  Code  Gb  json_object.o [1]
json_object_new_int64   0x0005fa89     0x2a  Code  Gb  json_object.o [1]
json_object_new_object  0x0005f8bf     0x3c  Code  Gb  json_object.o [1]
json_object_new_string  0x0005fb47     0x3e  Code  Gb  json_object.o [1]
json_object_object_add  0x0005f919     0x22  Code  Gb  json_object.o [1]
json_object_object_delete
                        0x0005f8a5      0xa  Code  Lc  json_object.o [1]
json_object_object_to_json_string
                        0x0005f7fb     0x8a  Code  Lc  json_object.o [1]
json_object_put         0x0005f7b1     0x10  Code  Gb  json_object.o [1]
json_object_string_delete
                        0x0005fb3b      0xc  Code  Lc  json_object.o [1]
json_object_string_to_json_string
                        0x0005fb15     0x26  Code  Lc  json_object.o [1]
json_object_to_json_string
                        0x0005f7c7     0x34  Code  Gb  json_object.o [1]
json_parse_int64        0x00065a69     0xe0  Code  Gb  json_util.o [1]
json_tokener_parse      0x00064701     0xba  Code  Gb  json_tokener.o [1]
json_tokener_parse_ex   0x000647bd    0xdd2  Code  Gb  json_tokener.o [1]
kClockNameConfigTable   0x0006ed24     0x14  Data  Gb  fsl_sim_hal_K64F12.o [4]
keep_alive_ms           0x20024a68      0x4  Data  Lc  tcp.o [6]
keep_cnt                0x20024a6c      0x4  Data  Lc  tcp.o [6]
largest_credit_diff     0x200251e1      0x1  Data  Lc  SDPCM.o [6]
last_bus_data_credit    0x200251df      0x1  Data  Lc  SDPCM.o [6]
last_event              0x200251d5      0x1  Data  Lc  wps_host.o [6]
last_no_bus_credit_time
                        0x2001e484      0x4  Data  Lc  wifimgr.o [6]
lease_time_option_buff  0x0006f3c0      0x8  Data  Lc  dhcp_server.o [6]
ledPins                 0x0006e56c     0x30  Data  Gb  gpio_pins.o [1]
lh_abort                0x000656e5     0x10  Code  Gb  linkhash.o [1]
lh_char_equal           0x00065711      0xe  Code  Gb  linkhash.o [1]
lh_char_hash            0x000656f5     0x1c  Code  Gb  linkhash.o [1]
lh_kchar_table_new      0x0006571f     0x42  Code  Gb  linkhash.o [1]
lh_table_delete         0x000659bf     0x1a  Code  Gb  linkhash.o [1]
lh_table_delete_entry   0x00065921     0x9e  Code  Gb  linkhash.o [1]
lh_table_free           0x00065819     0x28  Code  Gb  linkhash.o [1]
lh_table_insert         0x00065841     0x86  Code  Gb  linkhash.o [1]
lh_table_lookup_entry   0x000658c7     0x5a  Code  Gb  linkhash.o [1]
lh_table_resize         0x00065789     0x90  Code  Gb  linkhash.o [1]
line_down_reset         0x20016568      0x4  Data  Gb  define.o [1]
link_down_callbacks     0x20024ea8     0x14  Data  Lc  wiced_network.o [6]
link_events             0x0006f094      0xc  Data  Lc  wifimgr.o [6]
link_subscribe_mutex    0x20024e90      0x4  Data  Lc  wiced_network.o [6]
link_up_callbacks       0x20024e94     0x14  Data  Lc  wiced_network.o [6]
listen                  0x0003ec61      0x8  Code  Gb  mxchipWNET.o [6]
lmos                    0x00066c98     0x18  Data  Lc  xttotm.o [3]
localConfig_thread      0x0005a035    0x2da  Code  Lc  MICOConfigServer.o [1]
localConfiglistener_thread
                        0x00059e15    0x21a  Code  Lc  MICOConfigServer.o [1]
localTcpClient_thread   0x0006c1dd    0x2a2  Code  Lc  LocalTcpServer.o [1]
localTcpServer_thread   0x0006bfa5    0x232  Code  Gb  LocalTcpServer.o [1]
localeconv              0x000541bf     0x16  Code  Gb  localeconv.o [3]
log_function            0x2001e598      0x4  Data  Lc  logging.o [6]
loggingEnabled          0x2001e59c      0x4  Data  Lc  logging.o [6]
loopBackPortTable       0x0006c680     0x50  Data  Gb  LocalTcpServer.o [1]
loop_netif              0x20024f2c     0x44  Data  Lc  netif.o [6]
low_level_init          0x000575d5     0xae  Code  Lc  mico_ethif.o [6]
low_level_init          0x00054201     0x3a  Code  Lc  wwd_network.o [6]
low_level_input         0x000576f7     0x5e  Code  Lc  mico_ethif.o [6]
low_level_output        0x00057683     0x6a  Code  Lc  mico_ethif.o [6]
low_level_output        0x0005423b     0x2c  Code  Lc  wwd_network.o [6]
lwip_accept             0x00047cf5    0x166  Code  Gb  sockets.o [6]
lwip_bind               0x00047e5b     0x9c  Code  Gb  sockets.o [6]
lwip_close              0x00047ef7     0x44  Code  Gb  sockets.o [6]
lwip_connect            0x00047f3b     0xac  Code  Gb  sockets.o [6]
lwip_htonl              0x00047b87     0x18  Code  Gb  def.o [6]
lwip_htons              0x00047b71      0xc  Code  Gb  def.o [6]
lwip_igmp_mac_filter    0x00054311     0x5a  Code  Lc  wwd_network.o [6]
lwip_init               0x000567e3     0x20  Code  Gb  init.o [6]
lwip_ioctl              0x00048e85     0xd8  Code  Gb  sockets.o [6]
lwip_listen             0x00047fe7     0x74  Code  Gb  sockets.o [6]
lwip_ntohl              0x00047b9f      0x8  Code  Gb  def.o [6]
lwip_ntohs              0x00047b7d      0xa  Code  Gb  def.o [6]
lwip_recv               0x000482a7     0x10  Code  Gb  sockets.o [6]
lwip_recvfrom           0x0004805b    0x24c  Code  Gb  sockets.o [6]
lwip_select             0x000486d9    0x288  Code  Gb  sockets.o [6]
lwip_selscan            0x0004851d    0x1bc  Code  Lc  sockets.o [6]
lwip_send               0x000482b7     0xb8  Code  Gb  sockets.o [6]
lwip_sendto             0x0004836f    0x102  Code  Gb  sockets.o [6]
lwip_setsockopt         0x00048ac9    0x1c2  Code  Gb  sockets.o [6]
lwip_setsockopt_internal
                        0x00048c95    0x1f0  Code  Lc  sockets.o [6]
lwip_socket             0x00048471     0xa2  Code  Gb  sockets.o [6]
lwip_socket_init        0x00047ba9      0x2  Code  Gb  sockets.o [6]
lwip_standard_chksum    0x000543f5     0x64  Code  Lc  inet_chksum.o [6]
mDNS_fd                 0x2000001c      0x4  Data  Lc  MDNSUtils.o [1]
mac_monitor             0x2001ed30      0x4  Data  Lc  smart_config.o [6]
mac_report_cb           0x0003efa7      0x2  Code  Wk  mxchipWNET.o [6]
magic_code_valide       0x0003d121    0x156  Code  Lc  smart_config.o [6]
magic_tbl               0x2001ed9c     0x28  Data  Lc  smart_config.o [6]
main                    0x00042781     0x68  Code  Gb  wiced_rtos.o [6]
max_bus_credit_diff     0x20000074      0x4  Data  Lc  SDPCM.o [6]
max_channel             0x2000004c      0x4  Data  Lc  smart_config.o [6]
max_channel_index       0x2001e814      0x4  Data  Lc  smart_config.o [6]
max_syscall_int_prio    0x2001e2ac      0x4  Data  Gb  wiced_rtos.o [6]
mbox                    0x20024f78      0x4  Data  Lc  lwiptcpip.o [6]
mcs_data_rate_lookup_table
                        0x0006dba0    0x100  Data  Lc  wwd_wifi.o [6]
mdns_addr               0x20024f20      0x4  Data  Lc  igmp.o [6]
mdns_send_message       0x0006633f     0x58  Code  Lc  MDNSUtils.o [1]
memchr                  0x0005385d           Code  Gb  memchr.o [7]
memp_free               0x00052a4b     0x26  Code  Gb  memp.o [6]
memp_head               0x2001f898     0x40  Data  Lc  memp.o [6]
memp_init               0x000529b9     0x62  Code  Gb  memp.o [6]
memp_malloc             0x00052a1b     0x30  Code  Gb  memp.o [6]
memp_memory             0x2001f8d8   0x517c  Data  Lc  memp.o [6]
memp_num                0x0006e96c     0x20  Data  Lc  memp.o [6]
memp_sizes              0x0006e94c     0x20  Data  Lc  memp.o [6]
memp_tab                0x2001f858     0x40  Data  Lc  memp.o [6]
mf_printf               0x0004c169      0x8  Code  Wk  mftest.o [6]
mfi_bonjour_remove_record
                        0x000665fd     0xe2  Code  Gb  MDNSUtils.o [1]
mfi_bonjour_send        0x000664bd    0x140  Code  Gb  MDNSUtils.o [1]
mfi_bonjour_thread_handler
                        0x2001d118      0x4  Data  Lc  MDNSUtils.o [1]
mfi_mdns_handler        0x0006649b     0x22  Code  Gb  MDNSUtils.o [1]
mgmt_smart_type         0x2001ed28      0x4  Data  Lc  smart_config.o [6]
micoNotify_ConnectFailedHandler
                        0x0004f7fd     0x42  Code  Gb  MICOEntrance.o [1]
micoNotify_DHCPCompleteHandler
                        0x0004f6ad     0x70  Code  Gb  MICOEntrance.o [1]
micoNotify_ReadAppInfoHandler
                        0x0004f451     0x20  Code  Gb  MICOEntrance.o [1]
micoNotify_StackOverflowErrHandler
                        0x0004f891     0x4e  Code  Gb  MICOEntrance.o [1]
micoNotify_WiFIParaChangedHandler
                        0x0004f71d     0xda  Code  Gb  MICOEntrance.o [1]
micoNotify_WifiStatusHandler
                        0x0004f58b    0x122  Code  Gb  MICOEntrance.o [1]
micoNotify_WlanFatalErrHandler
                        0x0004f847     0x4a  Code  Gb  MICOEntrance.o [1]
mico_cpu_clock_hz       0x0006e458      0x4  Data  Gb  platform.o [1]
mico_deinit_timer       0x00042d21     0x22  Code  Gb  wiced_rtos.o [6]
mico_ethif_down         0x00057845     0x10  Code  Gb  mico_ethif.o [6]
mico_ethif_init         0x000577bb     0x8a  Code  Gb  mico_ethif.o [6]
mico_ethif_low_level_init
                        0x0005dd2d    0x224  Code  Gb  ethernetif.o [1]
mico_ethif_low_level_input
                        0x0005dfc1     0x4e  Code  Gb  ethernetif.o [1]
mico_ethif_low_level_output
                        0x0005df51     0x70  Code  Gb  ethernetif.o [1]
mico_ethif_notify_irq   0x000576ed      0xa  Code  Gb  mico_ethif.o [6]
mico_ethif_up           0x00057855    0x102  Code  Gb  mico_ethif.o [6]
mico_get_time           0x0003eebd      0x8  Code  Gb  mxchipWNET.o [6]
mico_init_timer         0x00042c15     0x32  Code  Gb  wiced_rtos.o [6]
mico_memory_info        0x0003ef7f     0x28  Code  Wk  mxchipWNET.o [6]
mico_monitor            0x2001d9d4      0x8  Data  Lc  MICOEntrance.o [1]
mico_nmode_enable       0x0006f2fc      0x4  Data  Gb  MICOConfig.o [1]
mico_platform_init      0x0004f1af     0x7e  Code  Gb  platform.o [1]
mico_rtos_create_thread
                        0x00042aaf     0x52  Code  Gb  wiced_rtos.o [6]
mico_rtos_deinit_semaphore
                        0x00042ba9     0x16  Code  Gb  wiced_rtos.o [6]
mico_rtos_delete_thread
                        0x00042b01     0x24  Code  Gb  wiced_rtos.o [6]
mico_rtos_get_semaphore
                        0x00042b43     0x22  Code  Gb  wiced_rtos.o [6]
mico_rtos_init_mutex    0x00042bbf     0x1c  Code  Gb  wiced_rtos.o [6]
mico_rtos_init_semaphore
                        0x00042b25     0x1e  Code  Gb  wiced_rtos.o [6]
mico_rtos_lock_mutex    0x00042bdb     0x1e  Code  Gb  wiced_rtos.o [6]
mico_rtos_set_semaphore
                        0x00042b65     0x44  Code  Gb  wiced_rtos.o [6]
mico_rtos_stack_overflow
                        0x0003f14d     0x1a  Code  Gb  MICONotificationCenter.o [1]
mico_rtos_unlock_mutex  0x00042bf9     0x1c  Code  Gb  wiced_rtos.o [6]
mico_start_timer        0x00042c81     0x54  Code  Gb  wiced_rtos.o [6]
mico_stop_timer         0x00042cd5     0x4c  Code  Gb  wiced_rtos.o [6]
mico_system_monitor_thread_main
                        0x00057419     0x7c  Code  Gb  MICOSystemMonitor.o [1]
mico_tick_rate_hz       0x0006f2f8      0x4  Data  Gb  MICOConfig.o [1]
mii_init                0x000628a1     0x1c  Code  Gb  mii.o [1]
mii_read                0x00062905     0x4a  Code  Gb  mii.o [1]
mii_write               0x000628bd     0x48  Code  Gb  mii.o [1]
minus_data_decode       0x0003d5b9    0x17c  Code  Lc  smart_config.o [6]
minus_got_pkt           0x2001edec      0x8  Data  Lc  smart_config.o [6]
minus_pkt_len           0x200251d4      0x1  Data  Lc  smart_config.o [6]
minus_pkt_num           0x200251d3      0x1  Data  Lc  smart_config.o [6]
mmap_resize             0x000439c9     0x96  Code  Lc  dlmalloc.o [6]
monitor_ignore          0x2001edf4      0x4  Data  Lc  smart_config.o [6]
monitor_mode_enabled    0x200251da      0x1  Data  Gb  wwd_wifi.o [6]
monitor_normal_filter   0x0003cc35     0x7a  Code  Gb  smart_config.o [6]
monitor_normal_filter_remove
                        0x0003ccc1     0x24  Code  Gb  smart_config.o [6]
mons                    0x0005e254     0x88  Data  Lc  xlocale_c.o [3]
mos                     0x00066cb0     0x18  Data  Lc  xttotm.o [3]
mparams                 0x2001ee00     0x18  Data  Lc  dlmalloc.o [6]
ms_to_tick_ratio        0x20000054      0x4  Data  Gb  wwd_rtos.o [6]
msleep                  0x0003ea77      0xa  Code  Gb  mxchipWNET.o [6]
mtu_option_buff         0x0006f400      0x4  Data  Lc  dhcp_server.o [6]
mtx                     0x200250d8     0x14  Data  Lc  xsyslock_mtx.o [3]
mxchipInit              0x0003e851     0x40  Code  Gb  mxchipWNET.o [6]
mxchip_inited           0x2001e27c      0x4  Data  Lc  mxchipWNET.o [6]
mxchip_mfg_test         0x0003efe7      0x2  Code  Wk  mxchipWNET.o [6]
mxchip_thread_init      0x00041c2d     0x6c  Code  Gb  wifimgr.o [6]
mxchip_timer_tick       0x00041d8d     0x9e  Code  Lc  wifimgr.o [6]
name_server_get         0x0004641d      0xe  Code  Gb  dns.o [6]
ndigs                   0x0006740c     0x28  Data  Lc  xstoul.o [3]
ndigs                   0x00068ae8     0x28  Data  Lc  xstoull.o [3]
netbuf_alloc            0x00050d69     0x3c  Code  Gb  netbuf.o [6]
netbuf_delete           0x00050d43     0x26  Code  Gb  netbuf.o [6]
netbuf_first            0x00050df1      0xa  Code  Gb  netbuf.o [6]
netbuf_free             0x00050da5     0x1e  Code  Gb  netbuf.o [6]
netbuf_new              0x00050d21     0x22  Code  Gb  netbuf.o [6]
netbuf_next             0x00050dc3     0x2e  Code  Gb  netbuf.o [6]
netconn_accept          0x00050fe5     0xbe  Code  Gb  api_lib.o [6]
netconn_alloc           0x0005bcb5     0x90  Code  Gb  api_msg.o [6]
netconn_bind            0x00050ee1     0x42  Code  Gb  api_lib.o [6]
netconn_connect         0x00050f23     0x46  Code  Gb  api_lib.o [6]
netconn_delete          0x00050e61     0x28  Code  Gb  api_lib.o [6]
netconn_disconnect      0x00050f69     0x3c  Code  Gb  api_lib.o [6]
netconn_drain           0x0005bd73     0xba  Code  Lc  api_msg.o [6]
netconn_free            0x0005bd45     0x2e  Code  Gb  api_msg.o [6]
netconn_getaddr         0x00050e89     0x58  Code  Gb  api_lib.o [6]
netconn_listen_with_backlog
                        0x00050fa5     0x40  Code  Gb  api_lib.o [6]
netconn_new_with_proto_and_callback
                        0x00050dfd     0x64  Code  Gb  api_lib.o [6]
netconn_recv            0x000511cf     0xa6  Code  Gb  api_lib.o [6]
netconn_recv_data       0x000510a3    0x114  Code  Lc  api_lib.o [6]
netconn_recv_tcp_pbuf   0x000511b7     0x18  Code  Gb  api_lib.o [6]
netconn_recved          0x00051275     0x28  Code  Gb  api_lib.o [6]
netconn_send            0x0005129d     0x3c  Code  Gb  api_lib.o [6]
netconn_write_partyly   0x000512d9     0x84  Code  Gb  api_lib.o [6]
netif_add               0x0004d279     0x70  Code  Gb  netif.o [6]
netif_default           0x20024f28      0x4  Data  Gb  netif.o [6]
netif_find              0x0004d395     0x40  Code  Gb  netif.o [6]
netif_init              0x0004d247     0x32  Code  Gb  netif.o [6]
netif_list              0x20024f24      0x4  Data  Gb  netif.o [6]
netif_loop_output       0x0004d4c1     0x70  Code  Gb  netif.o [6]
netif_loopif_init       0x0004d231     0x16  Code  Lc  netif.o [6]
netif_poll              0x0004d531     0x58  Code  Gb  netif.o [6]
netif_remove            0x0004d32d     0x68  Code  Gb  netif.o [6]
netif_remove_pcbs       0x0004d309     0x24  Code  Lc  netif.o [6]
netif_set_addr          0x0004d2e9     0x20  Code  Gb  netif.o [6]
netif_set_default       0x0004d43d      0x6  Code  Gb  netif.o [6]
netif_set_down          0x0004d4a9     0x16  Code  Gb  netif.o [6]
netif_set_gw            0x0004d421      0xe  Code  Gb  netif.o [6]
netif_set_ipaddr        0x0004d3d5     0x4c  Code  Gb  netif.o [6]
netif_set_netmask       0x0004d42f      0xe  Code  Gb  netif.o [6]
netif_set_up            0x0004d469     0x40  Code  Gb  netif.o [6]
netifapi_netif_common   0x0004f0af     0x1c  Code  Gb  netifapi.o [6]
next_timeout            0x20024f84      0x4  Data  Lc  lwiptimers.o [6]
no_pmk_cache            0x2001e458      0x4  Data  Lc  wifimgr.o [6]
ntpNotify_WifiStatusHandler
                        0x0005acf9     0x18  Code  Gb  MICONTPClient.o [1]
obuf                    0x20025060     0x50  Data  Lc  xfiles.o [3]
pPrintffunc             0x20024d58      0x4  Data  Gb  mxchip_debug.o [6]
p_minus_buffer          0x2001ede8      0x4  Data  Lc  smart_config.o [6]
p_result_head           0x2001e360      0x4  Data  Lc  wifimgr.o [6]
p_scan_buff             0x2000003c      0x4  Data  Gb  wifimgr.o [6]
p_sem                   0x2001e800      0x4  Data  Lc  smart_config.o [6]
parse_ssid_ie           0x0003d765    0x1ce  Code  Lc  smart_config.o [6]
pbuf_alloc              0x0004b06d    0x174  Code  Gb  pbuf.o [6]
pbuf_cat                0x0004b363     0x28  Code  Gb  pbuf.o [6]
pbuf_chain              0x0004b38b     0x12  Code  Gb  pbuf.o [6]
pbuf_clen               0x0004b339     0x12  Code  Gb  pbuf.o [6]
pbuf_copy               0x0004b39d     0xb4  Code  Gb  pbuf.o [6]
pbuf_copy_partial       0x0004b451     0x9c  Code  Gb  pbuf.o [6]
pbuf_free               0x0004b2c1     0x78  Code  Gb  pbuf.o [6]
pbuf_header             0x0004b22d     0x94  Code  Gb  pbuf.o [6]
pbuf_realloc            0x0004b1e1     0x4c  Code  Gb  pbuf.o [6]
pbuf_ref                0x0004b34b     0x18  Code  Gb  pbuf.o [6]
pbuf_take               0x0004b4ed     0x6c  Code  Gb  pbuf.o [6]
pcb_new                 0x0005bbf1     0xa4  Code  Lc  api_msg.o [6]
periph_clk_khz          0x0006f3e0      0x4  Data  Gb  define.o [1]
pkt_buffer              0x2001e5fc    0x100  Data  Lc  smart_config.o [6]
pkt_num                 0x2001e7fc      0x4  Data  Lc  smart_config.o [6]
pkt_state               0x2001e6fc    0x100  Data  Lc  smart_config.o [6]
pkt_tbl                 0x2001e5ac     0x50  Data  Lc  smart_config.o [6]
pkt_type                0x0003d941     0xa8  Code  Lc  smart_config.o [6]
platform_get_wifi_image
                        0x0000a415     0x22  Code  Gb  read_wifi_firmware.o [1]
platform_get_wifi_image_size
                        0x0000a411      0x4  Code  Gb  read_wifi_firmware.o [1]
platform_power_down_hook
                        0x0004f0fd      0x6  Code  Gb  ksdk_platform.o [1]
poll_tcp                0x0005b9c3     0x62  Code  Lc  api_msg.o [6]
pows                    0x00069238     0x48  Data  Lc  xdtento.o [5]
prefix_tbl              0x2001edc4      0x8  Data  Lc  smart_config.o [6]
prefix_valid            0x2001eddc      0x4  Data  Lc  smart_config.o [6]
prefix_validate         0x0003d311    0x152  Code  Lc  smart_config.o [6]
prepend_alloc           0x00043ab5    0x3e6  Code  Lc  dlmalloc.o [6]
print_buffer            0x0003c4ed     0xa8  Code  Lc  smart_config.o [6]
printbuf_free           0x000656cb     0x18  Code  Gb  printbuf.o [1]
printbuf_memappend      0x000655d9     0x52  Code  Gb  printbuf.o [1]
printbuf_new            0x000655ad     0x2c  Code  Gb  printbuf.o [1]
printbuf_reset          0x000656c1      0xa  Code  Gb  printbuf.o [1]
printf                  0x000492f1     0x24  Code  Gb  printf.o [3]
probe_req_filter        0x0006f1a8      0xc  Data  Lc  smart_config.o [6]
probe_req_match         0x00050cf3      0x1  Data  Lc  smart_config.o [6]
probe_req_pattern       0x0006f16c      0xc  Data  Lc  smart_config.o [6]
probe_rsp_filter        0x0006f19c      0xc  Data  Lc  smart_config.o [6]
probe_rsp_match         0x00050cf2      0x1  Data  Lc  smart_config.o [6]
probe_rsp_pattern       0x0006f160      0xc  Data  Lc  smart_config.o [6]
process_dns_questions   0x00065e3d    0x306  Code  Gb  MDNSUtils.o [1]
prvAddCurrentTaskToDelayedList
                        0x000435ed     0x3a  Code  Lc  tasks.o [6]
prvAllocateTCBAndStack  0x0004362d     0x46  Code  Lc  tasks.o [6]
prvCheckForValidListAndQueue
                        0x00050aef     0x3a  Code  Lc  ostimers.o [6]
prvCheckTasksWaitingTermination
                        0x00043589     0x58  Code  Lc  tasks.o [6]
prvCopyDataFromQueue    0x0004ce45     0x2a  Code  Lc  queue.o [6]
prvCopyDataToQueue      0x0004cddb     0x6a  Code  Lc  queue.o [6]
prvDeleteTCB            0x00043673     0x12  Code  Lc  tasks.o [6]
prvGetNextExpireTime    0x0005095b     0x28  Code  Lc  ostimers.o [6]
prvIdleTask             0x00043429     0xc2  Code  Lc  tasks.o [6]
prvInitialiseENETBuffers
                        0x0005e00f     0xcc  Code  Lc  ethernetif.o [1]
prvInitialiseTCBVariables
                        0x000434fd     0x3a  Code  Lc  tasks.o [6]
prvInitialiseTaskLists  0x00043537     0x48  Code  Lc  tasks.o [6]
prvInsertTimerInActiveList
                        0x000509af     0x3e  Code  Lc  ostimers.o [6]
prvIsQueueEmpty         0x0004ced9     0x1c  Code  Lc  queue.o [6]
prvIsQueueFull          0x0004cef5     0x1e  Code  Lc  queue.o [6]
prvProcessExpiredTimer  0x000508b1     0x46  Code  Lc  ostimers.o [6]
prvProcessReceivedCommands
                        0x000509ed     0x98  Code  Lc  ostimers.o [6]
prvProcessTimerOrBlockTask
                        0x0005090d     0x4e  Code  Lc  ostimers.o [6]
prvSampleTimeNow        0x00050983     0x2c  Code  Lc  ostimers.o [6]
prvSetupTimerInterrupt  0x0005079b     0x1a  Code  Lc  port.o [6]
prvSwitchTimerLists     0x00050a85     0x6a  Code  Lc  ostimers.o [6]
prvTimerTask            0x000508f9     0x14  Code  Lc  ostimers.o [6]
prvUnlockQueue          0x0004ce6f     0x6a  Code  Lc  queue.o [6]
ps_enable               0x0003ea81     0x12  Code  Gb  mxchipWNET.o [6]
ps_enabled              0x2001e274      0x4  Data  Lc  mxchipWNET.o [6]
ptcd                    0x20016584    0x140  Data  Gb  edma.o [1]
putchar                 0x0006ec8d      0xc  Code  Gb  putchar.o [3]
pvPortMalloc            0x00050c8d     0x20  Code  Gb  heap_3.o [6]
pvTimerGetTimerID       0x00050b45      0x4  Code  Gb  ostimers.o [6]
pxCurrentTCB            0x20024b54      0x4  Data  Gb  tasks.o [6]
pxCurrentTimerList      0x20024b44      0x4  Data  Lc  ostimers.o [6]
pxDelayedTaskList       0x20024c48      0x4  Data  Lc  tasks.o [6]
pxOverflowDelayedTaskList
                        0x20024c4c      0x4  Data  Lc  tasks.o [6]
pxOverflowTimerList     0x20024b48      0x4  Data  Lc  ostimers.o [6]
pxPortInitialiseStack   0x000506ed     0x22  Code  Gb  port.o [6]
pxReadyTasksLists       0x20024b58     0xc8  Data  Lc  tasks.o [6]
rand                    0x00052a85     0xe0  Code  Gb  rand.o [3]
raw_bind                0x000545f3     0x10  Code  Gb  raw.o [6]
raw_connect             0x00054603     0x10  Code  Gb  raw.o [6]
raw_input               0x00054565     0x8e  Code  Gb  raw.o [6]
raw_new                 0x000546f7     0x2e  Code  Gb  raw.o [6]
raw_pcbs                0x20024f7c      0x4  Data  Lc  raw.o [6]
raw_recv                0x00054613      0x6  Code  Gb  raw.o [6]
raw_remove              0x000546bb     0x3c  Code  Gb  raw.o [6]
raw_send                0x000546b1      0xa  Code  Gb  raw.o [6]
raw_sendto              0x00054619     0x98  Code  Gb  raw.o [6]
rcon                    0x0006e6ac     0x28  Data  Lc  aes.o [6]
read                    0x0003ed95      0xa  Code  Gb  mxchipWNET.o [6]
read_dmaLoop            0x2001b0c0     0x2c  Data  Lc  k64_spi.o [1]
received_byte_count     0x2001e820      0x4  Data  Lc  smart_config.o [6]
received_packet         0x2001eff4      0x4  Data  Lc  wps_host.o [6]
recv                    0x0003ed41     0x16  Code  Gb  mxchipWNET.o [6]
recv_data               0x20024b0c      0x4  Data  Lc  tcp_in.o [6]
recv_flags              0x200251e5      0x1  Data  Lc  tcp_in.o [6]
recv_raw                0x0005b811     0xa4  Code  Lc  api_msg.o [6]
recv_tcp                0x0005b937     0x8c  Code  Lc  api_msg.o [6]
recv_udp                0x0005b8b5     0x82  Code  Lc  api_msg.o [6]
recvfrom                0x0003ed57     0x3e  Code  Gb  mxchipWNET.o [6]
release_unused_segments
                        0x000442a7     0x28  Code  Lc  dlmalloc.o [6]
remoteTcpClient_thread  0x0006c7bf    0x378  Code  Gb  RemoteTcpClient.o [1]
remote_ip               0x2001ed94      0x8  Data  Lc  smart_config.o [6]
remove                  0x000696af     0x16  Code  Gb  remove.o [8]
renew_tcp_port          0x0004704d      0xe  Code  Gb  tcp.o [6]
requested_ioctl_id      0x200251c4      0x2  Data  Lc  SDPCM.o [6]
reset_pkt_buffer        0x0003bed5     0x2c  Code  Lc  smart_config.o [6]
reset_recv_state        0x0003bf01     0xd6  Code  Lc  smart_config.o [6]
reset_without_dataclean
                        0x0003c00f     0x5c  Code  Lc  smart_config.o [6]
result_buff             0x2001e324     0x3c  Data  Gb  wifimgr.o [6]
ring_buffer_init        0x0006254d      0xe  Code  Gb  RingBufferUtils.o [1]
rotlFixed               0x00055c81      0x8  Code  Lc  aes.o [6]
rssi_2_quility          0x000408cd     0x24  Code  Lc  wifimgr.o [6]
rx_buffer               0x2001d11c     0x10  Data  Gb  MICOAppEntrance.o [1]
rx_data                 0x2001d12c    0x800  Data  Gb  MICOAppEntrance.o [1]
sFileInfo               0x20025140     0x80  Data  Lc  XShHandles.o [3]
s_debugConsole          0x2001a9cc     0x4c  Data  Lc  fsl_debug_console.o [1]
s_pxNetIf               0x2001e4cc      0x4  Data  Lc  mico_ethif.o [6]
s_xSemaphore            0x2001e4d0      0x4  Data  Gb  mico_ethif.o [6]
sc_channel              0x2001e5a8      0x4  Data  Lc  smart_config.o [6]
sc_loop_num             0x2001e818      0x4  Data  Lc  smart_config.o [6]
sc_state                0x2001e5a4      0x4  Data  Lc  smart_config.o [6]
scan_adv_finished       0x000414c1     0x20  Code  Lc  wifimgr.o [6]
scan_events             0x0006f368      0x8  Data  Lc  wwd_wifi.o [6]
scan_finished           0x00041421     0x20  Code  Lc  wifimgr.o [6]
scan_report             0x0003eb0b      0x8  Code  Gb  mxchipWNET.o [6]
scan_result_callback    0x20024a78      0x4  Data  Lc  wwd_wifi.o [6]
scan_result_handler     0x0003f5e9    0x30e  Code  Lc  wwd_wifi.o [6]
scan_result_ptr         0x20024a7c      0x4  Data  Lc  wwd_wifi.o [6]
scan_results_handler    0x00041985    0x110  Code  Lc  wifimgr.o [6]
scan_sem                0x2001e40c      0x4  Data  Lc  wifimgr.o [6]
scan_semaphore          0x20024a88      0x4  Data  Lc  wifi.o [6]
sdio_irq_               0x2001e58c      0x4  Data  Gb  wwd_thread.o [6]
sdpcm_enabled           0x200251e3      0x1  Data  Lc  SDPCM.o [6]
sdpcm_highest_rx_tos    0x200251de      0x1  Data  Lc  SDPCM.o [6]
sdpcm_line              0x20024ae4      0x4  Data  Gb  SDPCM.o [6]
sdpcm_packet_transmit_sequence_number
                        0x200251dd      0x1  Data  Lc  SDPCM.o [6]
sectype_bcm2mx          0x000408f1     0x46  Code  Lc  wifimgr.o [6]
sectype_mx2bcm          0x00040937     0x42  Code  Lc  wifimgr.o [6]
seedNum                 0x2001da38      0x4  Data  Lc  MICOParaStorage.o [1]
segment_holding         0x0004385d     0x1e  Code  Lc  dlmalloc.o [6]
select                  0x0003ecad     0x22  Code  Gb  mxchipWNET.o [6]
select_ap_to_join       0x00041529    0x3d2  Code  Lc  wifimgr.o [6]
select_cb_ctr           0x2001f854      0x4  Data  Lc  sockets.o [6]
select_cb_list          0x2001f850      0x4  Data  Lc  sockets.o [6]
send                    0x0003eccf     0x16  Code  Gb  mxchipWNET.o [6]
sendBuffer              0x2001aa34    0x100  Data  Gb  HomeProtocolParse.o [1]
sendNotifySYSWillPowerOff
                        0x0003f107     0x16  Code  Gb  MICONotificationCenter.o [1]
send_interface_mutex    0x20024e8c      0x4  Data  Gb  wiced_network.o [6]
sendto                  0x0003ece5     0x5c  Code  Gb  mxchipWNET.o [6]
sent_tcp                0x0005ba25     0x62  Code  Lc  api_msg.o [6]
seqno                   0x20024b04      0x4  Data  Lc  tcp_in.o [6]
set_conncetion_status   0x0003e84f      0x2  Code  Gb  mxchipWNET.o [6]
set_ethnetif            0x0004b559      0x8  Code  Gb  ip.o [6]
set_sta_connection      0x00040b95     0x90  Code  Lc  wifimgr.o [6]
set_sta_retry_interval  0x00040c5d      0xe  Code  Gb  wifimgr.o [6]
set_static_ip           0x00040d0d     0x72  Code  Lc  wifimgr.o [6]
set_uap_connection      0x00040c33     0x2a  Code  Lc  wifimgr.o [6]
setsockopt              0x0003eb57     0x86  Code  Gb  mxchipWNET.o [6]
setup_edma_loop         0x00062fc9     0x5c  Code  Gb  edma.o [1]
setup_tcp               0x0005bb3f     0x38  Code  Lc  api_msg.o [6]
sleep                   0x0003ea67     0x10  Code  Gb  mxchipWNET.o [6]
smart_cfg_process       0x0003e2d1    0x37a  Code  Lc  smart_config.o [6]
smart_config_done       0x0003ea9d     0x42  Code  Gb  mxchipWNET.o [6]
smart_insert_tbl        0x0003c595    0x132  Code  Gb  smart_config.o [6]
sniffer_callback        0x2001e5a0      0x4  Data  Lc  smart_config.o [6]
snprintf                0x0003f41d     0x44  Code  Gb  snprintf.o [3]
socket                  0x0003eb4f      0x8  Code  Gb  mxchipWNET.o [6]
socket_connected        0x0003f0b1     0x1a  Code  Gb  MICONotificationCenter.o [1]
sockets                 0x2001f6d0    0x180  Data  Lc  sockets.o [6]
softap_channel          0x20000048      0x4  Data  Lc  wifimgr.o [6]
spi_deinit              0x0005cacb     0x58  Code  Gb  k64_spi.o [1]
spi_dma_sem             0x2001b04c      0x1  Data  Lc  k64_spi.o [1]
spi_dma_transfer        0x0005cb31     0xa8  Code  Gb  k64_spi.o [1]
spi_driver              0x2001da68      0xc  Data  Lc  wwd_bus.o [1]
spi_init                0x0005c9b9    0x112  Code  Gb  k64_spi.o [1]
spi_irq_handler         0x00052ee5      0x4  Code  Lc  wwd_bus.o [1]
spi_transfer            0x0005cbd9     0x58  Code  Gb  k64_spi.o [1]
spi_tx_buffer           0x2001b0ec   0x2000  Data  Lc  k64_spi.o [1]
sppProtocolInit         0x00061f61     0x32  Code  Gb  SppProtocol.o [1]
sppUartCommandProcess   0x00061fa7    0x122  Code  Gb  SppProtocol.o [1]
sppWlanCommandProcess   0x00061f93     0x14  Code  Gb  SppProtocol.o [1]
sprintbuf               0x0006562b     0x92  Code  Gb  printbuf.o [1]
sprintf                 0x00045f7d     0x34  Code  Gb  sprintf.o [3]
srand                   0x00046b05     0x20  Code  Gb  srand.o [3]
sscanf                  0x000671e5     0x24  Code  Gb  sscanf.o [3]
sta_connect_with_apinfo
                        0x00040d7f    0x18e  Code  Lc  wifimgr.o [6]
sta_connected           0x200251cb      0x1  Data  Lc  wifimgr.o [6]
sta_dhcp_mode           0x2001e400      0x4  Data  Lc  wifimgr.o [6]
sta_down                0x00040c77     0x18  Code  Gb  wifimgr.o [6]
sta_ip_settings         0x2001e374     0x3c  Data  Lc  wifimgr.o [6]
sta_link_events_handler
                        0x00041b8f     0x80  Code  Lc  wifimgr.o [6]
sta_link_up             0x00040c75      0x2  Code  Lc  wifimgr.o [6]
sta_retry_interval      0x20000038      0x4  Data  Lc  wifimgr.o [6]
sta_state               0x200251cd      0x1  Data  Lc  wifimgr.o [6]
sta_up                  0x00040c6b      0xa  Code  Gb  wifimgr.o [6]
startEasyLink           0x00058cc3    0x1c4  Code  Gb  EasyLink.o [1]
startEasyLinkSoftAP     0x000614c9    0x1f2  Code  Gb  EasyLinkSoftAP.o [1]
start_bonjour_service   0x000666df     0x22  Code  Gb  MDNSUtils.o [1]
start_scan              0x00041ac9     0xbe  Code  Lc  wifimgr.o [6]
station_dhcp_mode       0x00042111      0x8  Code  Gb  wifimgr.o [6]
station_up              0x0003e947     0xac  Code  Gb  mxchipWNET.o [6]
stdio_rx_mutex          0x2001d10c      0x4  Data  Gb  ksdk_platform.o [1]
stdio_tx_mutex          0x2001d110      0x4  Data  Gb  ksdk_platform.o [1]
stop_rx_edma            0x0005cb27      0xa  Code  Gb  k64_spi.o [1]
stop_tx_edma            0x0005cb23      0x4  Code  Gb  k64_spi.o [1]
stopscan                0x00040c25      0xe  Code  Lc  wifimgr.o [6]
str2hex                 0x0003eeeb     0x8a  Code  Gb  mxchipWNET.o [6]
strchr                  0x00053845           Code  Gb  strchr.o [7]
strdup                  0x00065a31     0x18  Code  Gb  strdup.o [3]
strlen                  0x00042315           Code  Gb  strlen.o [7]
strncasecmp             0x00067197     0x4e  Code  Gb  strncasecmp.o [3]
strncmp                 0x0004c13d     0x2a  Code  Gb  strncmp.o [3]
strnicmp                0x00057bf1     0x38  Code  Gb  StringUtils.o [1]
strnicmp_suffix         0x0005822f     0x2a  Code  Gb  StringUtils.o [1]
strnicmpx               0x00057c29     0x3a  Code  Gb  StringUtils.o [1]
strnlen                 0x0005e441     0x16  Code  Gb  strnlen.o [3]
suspend_bonjour_service
                        0x00066701     0x24  Code  Gb  MDNSUtils.o [1]
switch_channle          0x0003c42d     0x9e  Code  Lc  smart_config.o [6]
sys_alloc               0x000440d9    0x1ce  Code  Lc  dlmalloc.o [6]
sys_arch_mbox_fetch     0x00052bbb     0xa0  Code  Gb  sys_arch.o [6]
sys_arch_mbox_tryfetch  0x00052d9b     0x20  Code  Gb  sys_arch.o [6]
sys_arch_protect        0x00052d89      0xa  Code  Gb  sys_arch.o [6]
sys_arch_sem_wait       0x00052cbb     0x78  Code  Gb  sys_arch.o [6]
sys_arch_unprotect      0x00052d93      0x8  Code  Gb  sys_arch.o [6]
sys_init                0x00052d53      0x2  Code  Gb  sys_arch.o [6]
sys_mbox_free           0x00052b81     0x18  Code  Gb  sys_arch.o [6]
sys_mbox_new            0x00052b6d     0x14  Code  Gb  sys_arch.o [6]
sys_mbox_post           0x00052b99     0x22  Code  Gb  sys_arch.o [6]
sys_mbox_set_invalid    0x00052df9      0x6  Code  Gb  sys_arch.o [6]
sys_mbox_trypost        0x00052dbb     0x1e  Code  Gb  sys_arch.o [6]
sys_mbox_valid          0x00052dd9     0x10  Code  Gb  sys_arch.o [6]
sys_msleep              0x0004e4a9     0x28  Code  Gb  sys.o [6]
sys_now                 0x00052b65      0x8  Code  Gb  sys_arch.o [6]
sys_sem_free            0x00052d49      0xa  Code  Gb  sys_arch.o [6]
sys_sem_new             0x00052c5b     0x60  Code  Gb  sys_arch.o [6]
sys_sem_set_invalid     0x00052dff      0x6  Code  Gb  sys_arch.o [6]
sys_sem_signal          0x00052d39     0x10  Code  Gb  sys_arch.o [6]
sys_sem_valid           0x00052de9     0x10  Code  Gb  sys_arch.o [6]
sys_thread_new          0x00052d55     0x34  Code  Gb  sys_arch.o [6]
sys_timeout             0x0005282b     0x8c  Code  Gb  lwiptimers.o [6]
sys_timeouts_init       0x000527ed     0x3e  Code  Gb  lwiptimers.o [6]
sys_timeouts_mbox_fetch
                        0x0005290f     0x82  Code  Gb  lwiptimers.o [6]
sys_timeouts_resume     0x000527a5     0x48  Code  Gb  lwiptimers.o [6]
sys_timeouts_suspend    0x00052771     0x34  Code  Gb  lwiptimers.o [6]
sys_trim                0x000442cf     0x98  Code  Lc  dlmalloc.o [6]
sys_untimeout           0x000528b7     0x58  Code  Gb  lwiptimers.o [6]
syslock_o               0x200250b4      0x4  Data  Lc  xsyslock_mtx.o [3]
system_lib_version      0x0003e849      0x6  Code  Gb  mxchipWNET.o [6]
system_monitors         0x2001da3c     0x14  Data  Lc  MICOSystemMonitor.o [1]
system_version          0x0003f0e9     0x1e  Code  Gb  MICONotificationCenter.o [1]
tcp_abandon             0x00046d6d     0x9e  Code  Gb  tcp.o [6]
tcp_abort               0x00046e0b      0xa  Code  Gb  tcp.o [6]
tcp_accept              0x0004777d      0x4  Code  Gb  tcp.o [6]
tcp_accept_null         0x00046eb5      0x6  Code  Lc  tcp.o [6]
tcp_active_pcbs         0x20024a60      0x4  Data  Gb  tcp.o [6]
tcp_alloc               0x00047667     0xe8  Code  Gb  tcp.o [6]
tcp_arg                 0x00047767      0x4  Code  Gb  tcp.o [6]
tcp_backoff             0x0006efd0     0x10  Data  Gb  tcp.o [6]
tcp_bind                0x00046e15     0xa0  Code  Gb  tcp.o [6]
tcp_bound_pcbs          0x20024a58      0x4  Data  Gb  tcp.o [6]
tcp_close               0x00046d01     0x1c  Code  Gb  tcp.o [6]
tcp_close_shutdown      0x00046b49    0x1b8  Code  Lc  tcp.o [6]
tcp_connect             0x000470cf    0x174  Code  Gb  tcp.o [6]
tcp_create_segment      0x00051aaf     0xb8  Code  Lc  tcp_out.o [6]
tcp_eff_send_mss        0x000478c5     0x28  Code  Gb  tcp.o [6]
tcp_enqueue_flags       0x00051fe3    0x106  Code  Gb  tcp_out.o [6]
tcp_err                 0x00047777      0x6  Code  Gb  tcp.o [6]
tcp_fasttmr             0x00047511     0x7e  Code  Gb  tcp.o [6]
tcp_input               0x00054731    0x4ec  Code  Gb  tcp_in.o [6]
tcp_input_cb            0x0003efe5      0x2  Code  Wk  mxchipWNET.o [6]
tcp_input_pcb           0x20024b10      0x4  Data  Gb  tcp_in.o [6]
tcp_keepalive           0x000525bf     0x4e  Code  Gb  tcp_out.o [6]
tcp_kill_older          0x00054c1d     0x5e  Code  Lc  tcp_in.o [6]
tcp_kill_prio           0x000475e5     0x4c  Code  Lc  tcp.o [6]
tcp_kill_timewait       0x00047631     0x36  Code  Lc  tcp.o [6]
tcp_listen_input        0x00054c7b    0x154  Code  Lc  tcp_in.o [6]
tcp_listen_pcbs         0x20024a5c      0x4  Data  Gb  tcp.o [6]
tcp_listen_with_backlog
                        0x00046ebb    0x112  Code  Gb  tcp.o [6]
tcp_new                 0x0004775d      0xa  Code  Gb  tcp.o [6]
tcp_new_port            0x0004705b     0x74  Code  Lc  tcp.o [6]
tcp_next_iss            0x000478b1     0x14  Code  Gb  tcp.o [6]
tcp_next_port           0x200251c2      0x2  Data  Lc  tcp.o [6]
tcp_output              0x0005214f    0x20a  Code  Gb  tcp_out.o [6]
tcp_output_alloc_header
                        0x000519f5     0x78  Code  Lc  tcp_out.o [6]
tcp_output_segment      0x00052359     0xd8  Code  Lc  tcp_out.o [6]
tcp_parseopt            0x00055a25     0xb4  Code  Lc  tcp_in.o [6]
tcp_pbuf_prealloc       0x00051b67     0x2c  Code  Lc  tcp_out.o [6]
tcp_pcb_lists           0x20000058     0x10  Data  Gb  tcp.o [6]
tcp_pcb_purge           0x0004778b     0xa6  Code  Gb  tcp.o [6]
tcp_pcb_remove          0x00047839     0x78  Code  Gb  tcp.o [6]
tcp_persist_backoff     0x0006f340      0x8  Data  Gb  tcp.o [6]
tcp_poll                0x00047781      0xa  Code  Gb  tcp.o [6]
tcp_process             0x00054e77    0x512  Code  Lc  tcp_in.o [6]
tcp_receive             0x000553c9    0x658  Code  Lc  tcp_in.o [6]
tcp_recv                0x0004776b      0x6  Code  Gb  tcp.o [6]
tcp_recv_null           0x000475bf     0x26  Code  Gb  tcp.o [6]
tcp_recved              0x00047015     0x38  Code  Gb  tcp.o [6]
tcp_rexmit              0x000524f9     0x4e  Code  Gb  tcp_out.o [6]
tcp_rexmit_fast         0x00052547     0x78  Code  Gb  tcp_out.o [6]
tcp_rexmit_rto          0x000524c5     0x34  Code  Gb  tcp_out.o [6]
tcp_rst                 0x0005243d     0x88  Code  Gb  tcp_out.o [6]
tcp_seg_free            0x000475a1     0x1e  Code  Gb  tcp.o [6]
tcp_segs_free           0x0004758f     0x12  Code  Gb  tcp.o [6]
tcp_send_empty_ack      0x000520e9     0x66  Code  Gb  tcp_out.o [6]
tcp_send_fin            0x00051a6d     0x42  Code  Gb  tcp_out.o [6]
tcp_sent                0x00047771      0x6  Code  Gb  tcp.o [6]
tcp_shutdown            0x00046d1d     0x50  Code  Gb  tcp.o [6]
tcp_slowtmr             0x00047243    0x2ce  Code  Gb  tcp.o [6]
tcp_ticks               0x20024a54      0x4  Data  Gb  tcp.o [6]
tcp_timer               0x200251d9      0x1  Data  Lc  tcp.o [6]
tcp_timer_needed        0x000526e3     0x2c  Code  Gb  lwiptimers.o [6]
tcp_timewait_input      0x00054dcf     0xa8  Code  Lc  tcp_in.o [6]
tcp_tmp_pcb             0x20024a70      0x4  Data  Gb  tcp.o [6]
tcp_tmr                 0x00046b25     0x24  Code  Gb  tcp.o [6]
tcp_tw_pcbs             0x20024a64      0x4  Data  Gb  tcp.o [6]
tcp_update_rcv_ann_wnd  0x00046fcd     0x48  Code  Gb  tcp.o [6]
tcp_write               0x00051c09    0x3da  Code  Gb  tcp_out.o [6]
tcp_write_checks        0x00051b93     0x76  Code  Lc  tcp_out.o [6]
tcp_zero_window_probe   0x0005260d     0xaa  Code  Gb  tcp_out.o [6]
tcphdr                  0x20024afc      0x4  Data  Lc  tcp_in.o [6]
tcpip_activate_tcpip_timeouts
                        0x0004d127     0x32  Code  Gb  lwiptcpip.o [6]
tcpip_apimsg            0x0004d159     0x44  Code  Gb  lwiptcpip.o [6]
tcpip_callback_with_block
                        0x0004d097     0x5e  Code  Gb  lwiptcpip.o [6]
tcpip_deactivate_tcpip_timeouts
                        0x0004d0f5     0x32  Code  Gb  lwiptcpip.o [6]
tcpip_init              0x0004d1ed     0x2e  Code  Gb  lwiptcpip.o [6]
tcpip_init_done         0x000423f9     0x10  Code  Lc  wiced_network.o [6]
tcpip_init_done         0x20024f70      0x4  Data  Lc  lwiptcpip.o [6]
tcpip_init_done_arg     0x20024f74      0x4  Data  Lc  lwiptcpip.o [6]
tcpip_input             0x0004d049     0x4e  Code  Gb  lwiptcpip.o [6]
tcpip_netifapi          0x0004d19d     0x50  Code  Gb  lwiptcpip.o [6]
tcpip_tcp_timer         0x000526b9     0x2a  Code  Lc  lwiptimers.o [6]
tcpip_tcp_timer_active  0x20024f88      0x4  Data  Lc  lwiptimers.o [6]
tcpip_thread            0x0004cf51     0xf8  Code  Lc  lwiptcpip.o [6]
tcplen                  0x200251c6      0x2  Data  Lc  tcp_in.o [6]
tempAckErr              0x0006c794      0xc  Data  Gb  HomeProtocolParse.o [1]
thread_created          0x2001e81c      0x4  Data  Lc  smart_config.o [6]
thread_wakeup           0x000627b9      0x2  Code  Lc  MicoDriverUart.o [1]
timer_callback          0x00042a0f     0x16  Code  Lc  wiced_rtos.o [6]
timer_head              0x2001e2b0      0x4  Data  Gb  wifimgr.o [6]
timer_sem               0x2001e404      0x4  Data  Lc  wifimgr.o [6]
timer_thread_func       0x00041c0f     0x16  Code  Lc  wifimgr.o [6]
timer_thread_wait       0x20000040      0x4  Data  Lc  wifimgr.o [6]
tmalloc_large           0x000448f9    0x41a  Code  Lc  dlmalloc.o [6]
tmalloc_small           0x00044d13    0x26c  Code  Lc  dlmalloc.o [6]
tods_bcast_mask         0x0006ec44     0x18  Data  Lc  smart_config.o [6]
tods_bcast_match        0x0006ec5c     0x18  Data  Lc  smart_config.o [6]
tods_brast_pattern      0x0006f13c      0xc  Data  Lc  smart_config.o [6]
tods_filter             0x0006f178      0xc  Data  Lc  smart_config.o [6]
tolower                 0x0005e405     0x14  Code  Gb  tolower.o [3]
total_data_len          0x2001ede0      0x4  Data  Lc  smart_config.o [6]
total_data_validate     0x0003d475     0xb8  Code  Lc  smart_config.o [6]
toupper                 0x0005e3ed     0x18  Code  Gb  toupper.o [3]
tpsk                    0x2001ed34     0x40  Data  Lc  smart_config.o [6]
try_realloc_chunk       0x000459a1    0x3a8  Code  Lc  dlmalloc.o [6]
tryget_socket           0x00047bdb     0x2a  Code  Lc  sockets.o [6]
tssid                   0x2001ed74     0x20  Data  Lc  smart_config.o [6]
type_subtype_mask       0x00050cca      0x1  Data  Lc  smart_config.o [6]
tzone                   0x0005e2dc      0x1  Data  Lc  xlocale_c.o [3]
uap_connected           0x200251cc      0x1  Data  Lc  wifimgr.o [6]
uap_down                0x00040ce7     0x20  Code  Lc  wifimgr.o [6]
uap_ip_settings         0x2001e3b0     0x3c  Data  Lc  wifimgr.o [6]
uap_stop                0x0004120f     0x18  Code  Gb  wifimgr.o [6]
uartConfig              0x2001d944      0x8  Data  Lc  MicoDriverUart.o [1]
uartInstance            0x0006287c      0x8  Data  Gb  MicoDriverUart.o [1]
uartRecv_thread         0x0006d829     0x80  Code  Gb  UartRecv.o [1]
uartState               0x2001d988     0x3c  Data  Lc  MicoDriverUart.o [1]
uart_interfaces         0x2001d950     0x38  Data  Lc  MicoDriverUart.o [1]
ucENETRxBuffers         0x20017a34   0x2f90  Data  Lc  ethernetif.o [1]
ucENETTxBuffers         0x20016854   0x11e0  Data  Lc  ethernetif.o [1]
udp_bind                0x0005185f     0xaa  Code  Gb  udp.o [6]
udp_connect             0x00051911     0x5a  Code  Gb  udp.o [6]
udp_disconnect          0x00051971     0x12  Code  Gb  udp.o [6]
udp_input               0x00051385    0x25c  Code  Gb  udp.o [6]
udp_new                 0x000519c5     0x20  Code  Gb  udp.o [6]
udp_pcbs                0x20024d8c      0x4  Data  Gb  udp.o [6]
udp_recv                0x00051983      0x6  Code  Gb  udp.o [6]
udp_remove              0x00051989     0x3c  Code  Gb  udp.o [6]
udp_send                0x000515e1      0xc  Code  Gb  udp.o [6]
udp_send_message        0x00040983     0x8a  Code  Gb  wifimgr.o [6]
udp_sendto              0x000515ed    0x14c  Code  Gb  udp.o [6]
udp_sendto_if           0x00051739    0x126  Code  Gb  udp.o [6]
update_arp_entry        0x0004c3e7     0xc2  Code  Lc  etharp.o [6]
update_bus_credit_time  0x00041f75     0x28  Code  Gb  wifimgr.o [6]
update_rx_time          0x0003ea93      0x2  Code  Gb  mxchipWNET.o [6]
upload_info             0x00040a0d    0x188  Code  Lc  wifimgr.o [6]
use_5g_join_param       0x20024a74      0x4  Data  Lc  wwd_wifi.o [6]
user_req_scan           0x2001e410      0x4  Data  Lc  wifimgr.o [6]
user_stop_sta           0x2001e414      0x4  Data  Lc  wifimgr.o [6]
utf8_replacement_char   0x20000014      0x4  Data  Lc  json_tokener.o [1]
utoa                    0x00056805     0x88  Code  Gb  wiced_lib.o [6]
uxCriticalNesting       0x20000078      0x4  Data  Lc  port.o [6]
uxCurrentNumberOfTasks  0x20024c90      0x4  Data  Lc  tasks.o [6]
uxMissedTicks           0x20024ca8      0x4  Data  Lc  tasks.o [6]
uxNextRxBuffer          0x200166cc      0x4  Data  Lc  ethernetif.o [1]
uxNextTxBuffer          0x200166d0      0x4  Data  Lc  ethernetif.o [1]
uxQueueMessagesWaiting  0x0004cdb7     0x12  Code  Gb  queue.o [6]
uxSchedulerSuspended    0x20024ca4      0x4  Data  Lc  tasks.o [6]
uxTCBNumber             0x20024cb4      0x4  Data  Lc  tasks.o [6]
uxTasksDeleted          0x20024c78      0x4  Data  Lc  tasks.o [6]
uxTopReadyPriority      0x20024c9c      0x4  Data  Lc  tasks.o [6]
uxTopUsedPriority       0x20024c98      0x4  Data  Lc  tasks.o [6]
vApplicationMallocFailedHook
                        0x00046afd      0x2  Code  Gb  wwd_rtos.o [6]
vApplicationStackOverflowHook
                        0x00046af3      0xa  Code  Gb  wwd_rtos.o [6]
vListInitialise         0x00050b49     0x1e  Code  Gb  list.o [6]
vListInitialiseItem     0x00050b67      0x6  Code  Gb  list.o [6]
vListInsert             0x00050b89     0x36  Code  Gb  list.o [6]
vListInsertEnd          0x00050b6d     0x1c  Code  Gb  list.o [6]
vListRemove             0x00050bbf     0x24  Code  Gb  list.o [6]
vPortClearInterruptMask
                        0x00050c3f           Code  Gb  portasm.o [6]
vPortEnableVFP          0x00050c6f           Code  Gb  portasm.o [6]
vPortEnterCritical      0x00050755     0x12  Code  Gb  port.o [6]
vPortExitCritical       0x00050767     0x1a  Code  Gb  port.o [6]
vPortFree               0x00050cad     0x18  Code  Gb  heap_3.o [6]
vPortSVCHandler         0x00050c49           Code  Gb  portasm.o [6]
vPortSetInterruptMask   0x00050c35           Code  Gb  portasm.o [6]
vPortStartFirstTask     0x00050c61           Code  Gb  portasm.o [6]
vPortYieldFromISR       0x0005074b      0xa  Code  Gb  port.o [6]
vQueueDelete            0x0004cdc9     0x12  Code  Gb  queue.o [6]
vQueueWaitForMessageRestricted
                        0x0004cf13     0x3e  Code  Gb  queue.o [6]
vSetMSP                 0x00050be5           Code  Gb  portasm.o [6]
vTaskDelay              0x00042ee9     0x36  Code  Gb  tasks.o [6]
vTaskDelete             0x00042e75     0x74  Code  Gb  tasks.o [6]
vTaskForceAwake         0x00042f97     0x4c  Code  Gb  tasks.o [6]
vTaskIncrementTick      0x00043151    0x106  Code  Gb  tasks.o [6]
vTaskMissedYield        0x0004341f      0xa  Code  Gb  tasks.o [6]
vTaskPlaceOnEventList   0x000432ef     0x3a  Code  Gb  tasks.o [6]
vTaskPlaceOnEventListRestricted
                        0x00043329     0x24  Code  Gb  tasks.o [6]
vTaskPriorityDisinherit
                        0x00043715     0x44  Code  Gb  tasks.o [6]
vTaskPriorityInherit    0x000436a7     0x66  Code  Gb  tasks.o [6]
vTaskSetTimeOutState    0x000433af     0x10  Code  Gb  tasks.o [6]
vTaskStartScheduler     0x00042ff9     0x4c  Code  Gb  tasks.o [6]
vTaskSuspendAll         0x00043045     0x10  Code  Gb  tasks.o [6]
vTaskSwitchContext      0x00043257     0x98  Code  Gb  tasks.o [6]
valid_dir               0x2001edd8      0x4  Data  Lc  smart_config.o [6]
valid_ssid              0x20000050      0x1  Data  Lc  smart_config.o [6]
vprintf                 0x00067271     0x18  Code  Gb  vprintf.o [3]
vsnprintf               0x00067209     0x3c  Code  Gb  vsnprint.o [3]
vsprintf                0x00067245     0x2c  Code  Gb  vsprintf.o [3]
wiced_bus_allow_wlan_bus_to_sleep
                        0x00053489     0x10  Code  Gb  wwd_bus_protocol.o [6]
wiced_bus_deinit        0x000532d5      0xc  Code  Gb  wwd_bus_protocol.o [6]
wiced_bus_ensure_wlan_bus_is_up
                        0x0005345d     0x2c  Code  Gb  wwd_bus_protocol.o [6]
wiced_bus_flow_controlled
                        0x200251ec      0x1  Data  Lc  wwd_bus_protocol.o [6]
wiced_bus_init          0x000530e7    0x1ee  Code  Gb  wwd_bus_protocol.o [6]
wiced_bus_interrupt     0x200251d0      0x1  Data  Lc  wwd_thread.o [6]
wiced_bus_is_flow_controlled
                        0x0005300b      0x8  Code  Gb  wwd_bus_protocol.o [6]
wiced_bus_poke_wlan     0x00052feb      0x4  Code  Gb  wwd_bus_protocol.o [6]
wiced_bus_process_interrupt
                        0x00053013     0x36  Code  Gb  wwd_bus_protocol.o [6]
wiced_bus_set_flow_control
                        0x00052fef     0x1c  Code  Gb  wwd_bus_protocol.o [6]
wiced_bus_transfer_buffer
                        0x00052ee9    0x102  Code  Gb  wwd_bus_protocol.o [6]
wiced_bus_transfer_bytes
                        0x00053379     0xe4  Code  Gb  wwd_bus_protocol.o [6]
wiced_device_core_is_up
                        0x0005cd55     0x5c  Code  Gb  wwd_internal.o [6]
wiced_dhcp_handle       0x20024e18     0x3c  Data  Gb  wiced_network.o [6]
wiced_disable_device_core
                        0x0005cdb1     0x9e  Code  Gb  wwd_internal.o [6]
wiced_dns_redirector_start
                        0x0004ba7d     0x42  Code  Gb  dns_redirect.o [6]
wiced_dns_redirector_stop
                        0x0004babf     0x30  Code  Gb  dns_redirect.o [6]
wiced_download_firmware
                        0x00053499     0xd0  Code  Lc  wwd_bus_protocol.o [6]
wiced_get_available_bus_credits
                        0x0004af2d      0xe  Code  Gb  SDPCM.o [6]
wiced_get_core_address  0x0005cd49      0xc  Code  Lc  wwd_internal.o [6]
wiced_get_ioctl_buffer  0x0004ae41     0x26  Code  Gb  SDPCM.o [6]
wiced_get_iovar_buffer  0x0004add9     0x68  Code  Gb  SDPCM.o [6]
wiced_get_mac_addr      0x000492c1     0x10  Code  Gb  wwd_management.o [6]
wiced_get_next_buffer_in_queue
                        0x0004afcb      0xa  Code  Lc  SDPCM.o [6]
wiced_get_packet_to_send
                        0x0004ae67     0xc6  Code  Gb  SDPCM.o [6]
wiced_gpio_input_get    0x00056add     0x28  Code  Gb  MicoDriverGpio.o [1]
wiced_gspi_32bit        0x200251eb      0x1  Data  Lc  wwd_bus_protocol.o [6]
wiced_handle_apsta_event
                        0x0004bc45     0x2e  Code  Lc  wwd_ap.o [6]
wiced_init              0x0004379d     0x84  Code  Gb  wifi.o [6]
wiced_init_sdpcm        0x0004a46d     0xe4  Code  Gb  SDPCM.o [6]
wiced_inited            0x200251cf      0x1  Data  Lc  wwd_thread.o [6]
wiced_initialised       0x200251dc      0x1  Data  Lc  wifi.o [6]
wiced_ioctl_response    0x20024acc      0x4  Data  Lc  SDPCM.o [6]
wiced_ioctl_sleep       0x20024ad0      0x4  Data  Lc  SDPCM.o [6]
wiced_ip_broadcast      0x0006ee00     0x14  Data  Gb  wiced_network.o [6]
wiced_ip_down           0x000426a1     0x7e  Code  Gb  wiced_network.o [6]
wiced_ip_get_gateway_address
                        0x00045fb1     0x24  Code  Gb  tcpip.o [6]
wiced_ip_get_ipaddr     0x00045ff9     0x56  Code  Gb  tcpip.o [6]
wiced_ip_get_ipv4_address
                        0x00046113     0x24  Code  Gb  tcpip.o [6]
wiced_ip_get_netmask    0x00045fd5     0x24  Code  Gb  tcpip.o [6]
wiced_ip_handle         0x20024d90     0x88  Data  Gb  wiced_network.o [6]
wiced_ip_up             0x00042431    0x270  Code  Gb  wiced_network.o [6]
wiced_join_events_handler
                        0x0003ff91    0x12a  Code  Lc  wwd_wifi.o [6]
wiced_join_status       0x20024a80      0x4  Data  Gb  wwd_wifi.o [6]
wiced_mac_addr          0x20024b14      0x8  Data  Lc  wwd_management.o [6]
wiced_management_init   0x000490ad     0x1e  Code  Gb  wwd_management.o [6]
wiced_management_set_event_handler
                        0x0004ac45      0xa  Code  Gb  SDPCM.o [6]
wiced_management_wifi_off
                        0x00049271     0x50  Code  Gb  wwd_management.o [6]
wiced_management_wifi_on
                        0x000490cb    0x1a6  Code  Gb  wwd_management.o [6]
wiced_network_init      0x00042355     0xa2  Code  Gb  wiced_network.o [6]
wiced_network_link_renew_handler
                        0x0004271f     0x18  Code  Gb  wiced_network.o [6]
wiced_network_resume    0x0004241d     0x14  Code  Gb  wiced_network.o [6]
wiced_network_send_ethernet_data
                        0x0004a5cf     0x8a  Code  Gb  SDPCM.o [6]
wiced_network_suspend   0x00042409     0x14  Code  Gb  wiced_network.o [6]
wiced_networking_worker_thread
                        0x2001e29c      0x8  Data  Gb  wiced_rtos.o [6]
wiced_packet_create_udp
                        0x0004604f     0x12  Code  Gb  tcpip.o [6]
wiced_packet_delete     0x00046061      0xa  Code  Gb  tcpip.o [6]
wiced_packet_get_data   0x0004609d     0x76  Code  Gb  tcpip.o [6]
wiced_packet_set_data_end
                        0x0004606b     0x16  Code  Gb  tcpip.o [6]
wiced_platform_notify_irq
                        0x000536cb     0x22  Code  Gb  wwd_thread.o [6]
wiced_process_bus_credit_update
                        0x0004a659     0x72  Code  Gb  SDPCM.o [6]
wiced_process_sdpcm     0x0004a6cb    0x376  Code  Gb  SDPCM.o [6]
wiced_quit_sdpcm        0x0004a551     0x4e  Code  Gb  SDPCM.o [6]
wiced_read_backplane_value
                        0x0005334b     0x2e  Code  Gb  wwd_bus_protocol.o [6]
wiced_read_frame        0x00053049     0x9e  Code  Gb  wwd_bus_protocol.o [6]
wiced_read_register_value
                        0x0005358d     0x50  Code  Lc  wwd_bus_protocol.o [6]
wiced_receive_one_packet
                        0x0005366b     0x38  Code  Gb  wwd_thread.o [6]
wiced_reset_device_core
                        0x0005ce4f     0x9e  Code  Gb  wwd_internal.o [6]
wiced_rtos_create_thread
                        0x00042829     0x4e  Code  Gb  wiced_rtos.o [6]
wiced_rtos_create_worker_thread
                        0x00042a41     0x5a  Code  Gb  wiced_rtos.o [6]
wiced_rtos_deinit_queue
                        0x00042a03      0xc  Code  Gb  wiced_rtos.o [6]
wiced_rtos_deinit_semaphore
                        0x0004298b     0x16  Code  Gb  wiced_rtos.o [6]
wiced_rtos_delay_milliseconds
                        0x000428d9      0xa  Code  Gb  wiced_rtos.o [6]
wiced_rtos_delete_thread
                        0x00042877     0x24  Code  Gb  wiced_rtos.o [6]
wiced_rtos_get_semaphore
                        0x00042923     0x22  Code  Gb  wiced_rtos.o [6]
wiced_rtos_init         0x00042807     0x22  Code  Gb  wiced_rtos.o [6]
wiced_rtos_init_queue   0x000429a1     0x1e  Code  Gb  wiced_rtos.o [6]
wiced_rtos_init_semaphore
                        0x00042901     0x22  Code  Gb  wiced_rtos.o [6]
wiced_rtos_is_current_thread
                        0x000428b5     0x18  Code  Gb  wiced_rtos.o [6]
wiced_rtos_pop_from_queue
                        0x000429e1     0x22  Code  Gb  wiced_rtos.o [6]
wiced_rtos_push_to_queue
                        0x000429bf     0x22  Code  Gb  wiced_rtos.o [6]
wiced_rtos_send_asynchronous_event
                        0x00042a9b     0x14  Code  Gb  wiced_rtos.o [6]
wiced_rtos_set_semaphore
                        0x00042945     0x46  Code  Gb  wiced_rtos.o [6]
wiced_rtos_thread_force_awake
                        0x000428cd      0xc  Code  Gb  wiced_rtos.o [6]
wiced_rtos_thread_join  0x0004289b     0x1a  Code  Gb  wiced_rtos.o [6]
wiced_sdpcm_ioctl_mutex
                        0x20024ac8      0x4  Data  Lc  SDPCM.o [6]
wiced_sdpcm_send_queue_head
                        0x20024adc      0x4  Data  Lc  SDPCM.o [6]
wiced_sdpcm_send_queue_mutex
                        0x20024ad8      0x4  Data  Lc  SDPCM.o [6]
wiced_sdpcm_send_queue_tail
                        0x20024ae0      0x4  Data  Lc  SDPCM.o [6]
wiced_send_ioctl        0x0004aa45    0x200  Code  Gb  SDPCM.o [6]
wiced_send_iovar        0x0004a59f     0x30  Code  Gb  SDPCM.o [6]
wiced_send_one_packet   0x0005362f     0x3c  Code  Gb  wwd_thread.o [6]
wiced_send_sdpcm_common
                        0x0004af3b     0x90  Code  Lc  SDPCM.o [6]
wiced_set_backplane_window
                        0x0005cca1     0xa8  Code  Gb  wwd_internal.o [6]
wiced_set_next_buffer_in_queue
                        0x0004afd5      0xe  Code  Lc  SDPCM.o [6]
wiced_start_dhcp_server
                        0x0004ea51     0x58  Code  Gb  dhcp_server.o [6]
wiced_stop_dhcp         0x00042737      0x8  Code  Gb  wiced_network.o [6]
wiced_stop_dhcp_server  0x0004eaa9     0x2a  Code  Gb  dhcp_server.o [6]
wiced_thread            0x2001e590      0x4  Data  Lc  wwd_thread.o [6]
wiced_thread_func       0x00053701     0xfe  Code  Lc  wwd_thread.o [6]
wiced_thread_init       0x000535e1     0x4e  Code  Gb  wwd_thread.o [6]
wiced_thread_notify     0x000536ed     0x14  Code  Gb  wwd_thread.o [6]
wiced_thread_quit       0x000536a3     0x28  Code  Gb  wwd_thread.o [6]
wiced_thread_quit_flag  0x200251ce      0x1  Data  Lc  wwd_thread.o [6]
wiced_time_get_time     0x000428e3     0x1e  Code  Gb  wiced_rtos.o [6]
wiced_time_offset       0x2001e2a8      0x4  Data  Lc  wiced_rtos.o [6]
wiced_transceive_semaphore
                        0x2001e594      0x4  Data  Lc  wwd_thread.o [6]
wiced_udp_create_socket
                        0x00046137     0x7c  Code  Gb  tcpip.o [6]
wiced_udp_delete_socket
                        0x0004626d     0x1e  Code  Gb  tcpip.o [6]
wiced_udp_packet_get_info
                        0x00046081     0x1c  Code  Gb  tcpip.o [6]
wiced_udp_receive       0x0004622f     0x3e  Code  Gb  tcpip.o [6]
wiced_udp_send          0x000461b3     0x7c  Code  Gb  tcpip.o [6]
wiced_using_dhcp        0x200251e7      0x1  Data  Lc  wiced_network.o [6]
wiced_wifi_add_packet_filter
                        0x00040665     0x86  Code  Gb  wwd_wifi.o [6]
wiced_wifi_ap_is_up     0x200251e9      0x1  Data  Gb  wwd_ap.o [6]
wiced_wifi_disable_monitor_mode
                        0x00040525     0x5c  Code  Gb  wwd_wifi.o [6]
wiced_wifi_enable_monitor_mode
                        0x000404c1     0x5c  Code  Gb  wwd_wifi.o [6]
wiced_wifi_enable_packet_filter
                        0x0004071f      0xc  Code  Gb  wwd_wifi.o [6]
wiced_wifi_enable_powersave_with_throughput
                        0x000401b9     0x8a  Code  Gb  wwd_wifi.o [6]
wiced_wifi_get_ap_name  0x00040769     0x68  Code  Gb  wwd_wifi.o [6]
wiced_wifi_get_mac_address
                        0x000400bb     0x4e  Code  Gb  wwd_wifi.o [6]
wiced_wifi_get_pmk      0x00040255     0x86  Code  Gb  wwd_wifi.o [6]
wiced_wifi_get_wifi_version
                        0x0004082d     0x52  Code  Gb  wwd_wifi.o [6]
wiced_wifi_is_packet_from_ap
                        0x0004c0c9      0xe  Code  Gb  wwd_ap.o [6]
wiced_wifi_is_ready_to_transceive
                        0x00040145     0x70  Code  Gb  wwd_wifi.o [6]
wiced_wifi_join         0x0003f8f7    0x108  Code  Gb  wwd_wifi.o [6]
wiced_wifi_join_specific
                        0x0003f9ff    0x194  Code  Gb  wwd_wifi.o [6]
wiced_wifi_leave        0x0003ff29     0x66  Code  Gb  wwd_wifi.o [6]
wiced_wifi_prepare_join
                        0x0003fb93    0x396  Code  Lc  wwd_wifi.o [6]
wiced_wifi_register_multicast_address
                        0x000402db     0xd0  Code  Gb  wwd_wifi.o [6]
wiced_wifi_remove_packet_filter
                        0x000406f1     0x2e  Code  Gb  wwd_wifi.o [6]
wiced_wifi_scan         0x0003f461    0x12c  Code  Gb  wwd_wifi.o [6]
wiced_wifi_set_channel  0x000405e7      0xc  Code  Gb  wwd_wifi.o [6]
wiced_wifi_set_down     0x00040585     0x20  Code  Gb  wwd_wifi.o [6]
wiced_wifi_set_maxassoc
                        0x0004087f     0x2c  Code  Gb  wwd_wifi.o [6]
wiced_wifi_set_nmode    0x00040111     0x2e  Code  Gb  wwd_wifi.o [6]
wiced_wifi_sleep_flag   0x20024edc      0x4  Data  Lc  wwd_ap.o [6]
wiced_wifi_start_ap     0x0004bc73    0x332  Code  Gb  wwd_ap.o [6]
wiced_wifi_stop_ap      0x0004bfa9     0xea  Code  Gb  wwd_ap.o [6]
wiced_wifi_stop_scan    0x0003f58d     0x58  Code  Gb  wwd_wifi.o [6]
wiced_wifi_toggle_packet_filter
                        0x0004072b     0x32  Code  Gb  wwd_wifi.o [6]
wiced_wifi_unregister_multicast_address
                        0x000403ab     0xf0  Code  Gb  wwd_wifi.o [6]
wiced_wlan_status       0x20000088      0xc  Data  Gb  wwd_internal.o [6]
wiced_write_backplane_value
                        0x00053321     0x2a  Code  Gb  wwd_bus_protocol.o [6]
wiced_write_register_value
                        0x000532e1     0x40  Code  Gb  wwd_bus_protocol.o [6]
wiced_write_wifi_firmware_image
                        0x0005cf01     0xbe  Code  Gb  wwd_firmware.o [6]
wiced_write_wifi_nvram_image
                        0x0005cfbf    0x162  Code  Gb  wwd_firmware.o [6]
wifi_firmware_image     0x0000a43c  0x31a00  Data  Gb  read_wifi_firmware.o [1]
wifi_join_aping         0x200251db      0x1  Data  Lc  wwd_wifi.o [6]
wifi_mgmt_parse         0x0003e149    0x10e  Code  Lc  smart_config.o [6]
wifi_nvram_image        0x0006d51c    0x30c  Data  Lc  wwd_firmware.o [6]
wifi_power_down         0x0003eec5     0x26  Code  Gb  mxchipWNET.o [6]
wifi_power_is_down      0x2001e278      0x4  Data  Lc  mxchipWNET.o [6]
wifi_reboot_event       0x0003f137     0x16  Code  Gb  MICONotificationCenter.o [1]
wifi_reboot_only        0x00041cc5     0x34  Code  Gb  wifimgr.o [6]
wifi_status_callback    0x0003e9f3     0x74  Code  Gb  mxchipWNET.o [6]
wifimgr_sem             0x2001e408      0x4  Data  Lc  wifimgr.o [6]
wifimgr_thread          0x00041e2d    0x148  Code  Lc  wifimgr.o [6]
wlan_disconnect         0x0004122d     0x48  Code  Gb  wifimgr.o [6]
wlan_driver_version     0x0003ef75      0xa  Code  Gb  mxchipWNET.o [6]
wlan_get_mac_address    0x00041b87      0x8  Code  Gb  wifimgr.o [6]
wlan_init               0x00041c99     0x28  Code  Gb  wifimgr.o [6]
wlu_is_ali_ie           0x0003d567     0x36  Code  Lc  smart_config.o [6]
wlu_is_wpa_ie           0x000407f7     0x36  Code  Lc  wwd_wifi.o [6]
wlu_parse_tlvs          0x0003d541     0x26  Code  Lc  smart_config.o [6]
wlu_parse_tlvs          0x000407d1     0x26  Code  Lc  wwd_wifi.o [6]
work_mode               0x2001edfc      0x4  Data  Lc  smart_config.o [6]
worker_thread_main      0x00042a25     0x1c  Code  Lc  wiced_rtos.o [6]
wps_running             0x200251d6      0x1  Data  Lc  wps_host.o [6]
write                   0x0003ed9f      0xa  Code  Gb  mxchipWNET.o [6]
write_dmaLoop           0x2001b094     0x2c  Data  Lc  k64_spi.o [1]
wwd_management_set_event_handler
                        0x0004ac4f    0x18a  Code  Gb  SDPCM.o [6]
wwd_thread_line         0x2001e588      0x4  Data  Gb  wwd_thread.o [6]
wwd_wifi_get_channel    0x000405a9     0x3e  Code  Gb  wwd_wifi.o [6]
wwd_wifi_set_channel    0x000405f3     0x62  Code  Gb  wwd_wifi.o [6]
xActiveTimerList1       0x20024b1c     0x14  Data  Lc  ostimers.o [6]
xActiveTimerList2       0x20024b30     0x14  Data  Lc  ostimers.o [6]
xDelayedTaskList1       0x20024c20     0x14  Data  Lc  tasks.o [6]
xDelayedTaskList2       0x20024c34     0x14  Data  Lc  tasks.o [6]
xENETRxDescriptors      0x200166c8      0x4  Data  Lc  ethernetif.o [1]
xENETRxDescriptors_unaligned
                        0x20016744    0x110  Data  Lc  ethernetif.o [1]
xENETTxDescriptors      0x200166c4      0x4  Data  Lc  ethernetif.o [1]
xENETTxDescriptors_unaligned
                        0x200166d4     0x70  Data  Lc  ethernetif.o [1]
xMissedYield            0x20024cac      0x4  Data  Lc  tasks.o [6]
xNextTaskUnblockTime    0x2000007c      0x4  Data  Lc  tasks.o [6]
xNumOfOverflows         0x20024cb0      0x4  Data  Lc  tasks.o [6]
xPendingReadyList       0x20024c50     0x14  Data  Lc  tasks.o [6]
xPortPendSVHandler      0x00050beb           Code  Gb  portasm.o [6]
xPortStartScheduler     0x0005070f     0x3c  Code  Gb  port.o [6]
xPortSysTickHandler     0x00050781     0x1a  Code  Gb  port.o [6]
xQueueCreateCountingSemaphore
                        0x0004cb23     0x14  Code  Gb  queue.o [6]
xQueueCreateMutex       0x0004cac7     0x5c  Code  Gb  queue.o [6]
xQueueGenericCreate     0x0004ca49     0x7e  Code  Gb  queue.o [6]
xQueueGenericReceive    0x0004cc61    0x156  Code  Gb  queue.o [6]
xQueueGenericSend       0x0004cb37     0xd4  Code  Gb  queue.o [6]
xQueueGenericSendFromISR
                        0x0004cc0b     0x56  Code  Gb  queue.o [6]
xRxENETSemaphore        0x2001a9c4      0x4  Data  Lc  ethernetif.o [1]
xSchedulerRunning       0x20024ca0      0x4  Data  Lc  tasks.o [6]
xSuspendedTaskList      0x20024c7c     0x14  Data  Lc  tasks.o [6]
xTaskCheckForTimeOut    0x000433bf     0x60  Code  Gb  tasks.o [6]
xTaskForceAwakeClearPending
                        0x00042fed      0xc  Code  Gb  tasks.o [6]
xTaskForceAwakePending  0x00042fe3      0xa  Code  Gb  tasks.o [6]
xTaskGenericCreate      0x00042d45    0x130  Code  Gb  tasks.o [6]
xTaskGetCurrentTaskHandle
                        0x00043685      0x6  Code  Gb  tasks.o [6]
xTaskGetCurrentThread   0x00042f8f      0x8  Code  Gb  tasks.o [6]
xTaskGetSchedulerState  0x0004368b     0x1c  Code  Gb  tasks.o [6]
xTaskGetTickCount       0x00043127     0x14  Code  Gb  tasks.o [6]
xTaskGetTickCountFromISR
                        0x0004313b     0x16  Code  Gb  tasks.o [6]
xTaskIsTaskFinished     0x00042f1f     0x70  Code  Gb  tasks.o [6]
xTaskRemoveFromEventList
                        0x0004334d     0x62  Code  Gb  tasks.o [6]
xTaskResumeAll          0x00043055     0xd2  Code  Gb  tasks.o [6]
xTasksWaitingTermination
                        0x20024c64     0x14  Data  Lc  tasks.o [6]
xTickCount              0x20024c94      0x4  Data  Lc  tasks.o [6]
xTimerCreate            0x00050813     0x4c  Code  Gb  ostimers.o [6]
xTimerCreateTimerTask   0x000507d9     0x3a  Code  Gb  ostimers.o [6]
xTimerGenericCommand    0x0005085f     0x52  Code  Gb  ostimers.o [6]
xTimerQueue             0x20024b4c      0x4  Data  Lc  ostimers.o [6]
xTxENETSemaphore        0x2001a9c8      0x4  Data  Lc  ethernetif.o [1]
xnetif                  0x2001e488     0x44  Data  Lc  mico_ethif.o [6]
xorbuf                  0x00055cdf     0x32  Code  Lc  aes.o [6]


[1] = C:\Users\b45112\Desktop\MICO-Freescale(20150826_milestone)\MICO-Freescale-k22\src\Build\FRDM_K64F_SPP\Obj
[2] = command line
[3] = dl7M_tlf.a
[4] = ksdk_freertos_lib.a
[5] = m7M_tls.a
[6] = mxchipWNet_cm4f_spi.a
[7] = rt7M_tl.a
[8] = shb_l.a

  398 656 bytes of readonly  code memory
   16 345 bytes of readonly  data memory
  152 297 bytes of readwrite data memory

Errors: none
Warnings: none
